
REGULARSABER/speed/speed_SABER_indcpa_regular_complete_nc:     file format elf64-x86-64


Disassembly of section .init:

0000000000001000 <_init>:
    1000:	f3 0f 1e fa          	endbr64 
    1004:	48 83 ec 08          	sub    $0x8,%rsp
    1008:	48 8b 05 c9 1f 06 00 	mov    0x61fc9(%rip),%rax        # 62fd8 <__gmon_start__>
    100f:	48 85 c0             	test   %rax,%rax
    1012:	74 02                	je     1016 <_init+0x16>
    1014:	ff d0                	callq  *%rax
    1016:	48 83 c4 08          	add    $0x8,%rsp
    101a:	c3                   	retq   

Disassembly of section .plt:

0000000000001020 <.plt>:
    1020:	ff 35 1a 1f 06 00    	pushq  0x61f1a(%rip)        # 62f40 <_GLOBAL_OFFSET_TABLE_+0x8>
    1026:	ff 25 1c 1f 06 00    	jmpq   *0x61f1c(%rip)        # 62f48 <_GLOBAL_OFFSET_TABLE_+0x10>
    102c:	0f 1f 40 00          	nopl   0x0(%rax)

0000000000001030 <memset@plt>:
    1030:	ff 25 1a 1f 06 00    	jmpq   *0x61f1a(%rip)        # 62f50 <memset@GLIBC_2.2.5>
    1036:	68 00 00 00 00       	pushq  $0x0
    103b:	e9 e0 ff ff ff       	jmpq   1020 <.plt>

0000000000001040 <abort@plt>:
    1040:	ff 25 12 1f 06 00    	jmpq   *0x61f12(%rip)        # 62f58 <abort@GLIBC_2.2.5>
    1046:	68 01 00 00 00       	pushq  $0x1
    104b:	e9 d0 ff ff ff       	jmpq   1020 <.plt>

0000000000001050 <puts@plt>:
    1050:	ff 25 0a 1f 06 00    	jmpq   *0x61f0a(%rip)        # 62f60 <puts@GLIBC_2.2.5>
    1056:	68 02 00 00 00       	pushq  $0x2
    105b:	e9 c0 ff ff ff       	jmpq   1020 <.plt>

0000000000001060 <__printf_chk@plt>:
    1060:	ff 25 02 1f 06 00    	jmpq   *0x61f02(%rip)        # 62f68 <__printf_chk@GLIBC_2.3.4>
    1066:	68 03 00 00 00       	pushq  $0x3
    106b:	e9 b0 ff ff ff       	jmpq   1020 <.plt>

0000000000001070 <putchar@plt>:
    1070:	ff 25 fa 1e 06 00    	jmpq   *0x61efa(%rip)        # 62f70 <putchar@GLIBC_2.2.5>
    1076:	68 04 00 00 00       	pushq  $0x4
    107b:	e9 a0 ff ff ff       	jmpq   1020 <.plt>

0000000000001080 <fopen@plt>:
    1080:	ff 25 f2 1e 06 00    	jmpq   *0x61ef2(%rip)        # 62f78 <fopen@GLIBC_2.2.5>
    1086:	68 05 00 00 00       	pushq  $0x5
    108b:	e9 90 ff ff ff       	jmpq   1020 <.plt>

0000000000001090 <EVP_aes_256_ecb@plt>:
    1090:	ff 25 ea 1e 06 00    	jmpq   *0x61eea(%rip)        # 62f80 <EVP_aes_256_ecb@OPENSSL_1_1_0>
    1096:	68 06 00 00 00       	pushq  $0x6
    109b:	e9 80 ff ff ff       	jmpq   1020 <.plt>

00000000000010a0 <EVP_CIPHER_CTX_new@plt>:
    10a0:	ff 25 e2 1e 06 00    	jmpq   *0x61ee2(%rip)        # 62f88 <EVP_CIPHER_CTX_new@OPENSSL_1_1_0>
    10a6:	68 07 00 00 00       	pushq  $0x7
    10ab:	e9 70 ff ff ff       	jmpq   1020 <.plt>

00000000000010b0 <fread@plt>:
    10b0:	ff 25 da 1e 06 00    	jmpq   *0x61eda(%rip)        # 62f90 <fread@GLIBC_2.2.5>
    10b6:	68 08 00 00 00       	pushq  $0x8
    10bb:	e9 60 ff ff ff       	jmpq   1020 <.plt>

00000000000010c0 <qsort@plt>:
    10c0:	ff 25 d2 1e 06 00    	jmpq   *0x61ed2(%rip)        # 62f98 <qsort@GLIBC_2.2.5>
    10c6:	68 09 00 00 00       	pushq  $0x9
    10cb:	e9 50 ff ff ff       	jmpq   1020 <.plt>

00000000000010d0 <__stack_chk_fail@plt>:
    10d0:	ff 25 ca 1e 06 00    	jmpq   *0x61eca(%rip)        # 62fa0 <__stack_chk_fail@GLIBC_2.4>
    10d6:	68 0a 00 00 00       	pushq  $0xa
    10db:	e9 40 ff ff ff       	jmpq   1020 <.plt>

00000000000010e0 <EVP_CIPHER_CTX_free@plt>:
    10e0:	ff 25 c2 1e 06 00    	jmpq   *0x61ec2(%rip)        # 62fa8 <EVP_CIPHER_CTX_free@OPENSSL_1_1_0>
    10e6:	68 0b 00 00 00       	pushq  $0xb
    10eb:	e9 30 ff ff ff       	jmpq   1020 <.plt>

00000000000010f0 <fclose@plt>:
    10f0:	ff 25 ba 1e 06 00    	jmpq   *0x61eba(%rip)        # 62fb0 <fclose@GLIBC_2.2.5>
    10f6:	68 0c 00 00 00       	pushq  $0xc
    10fb:	e9 20 ff ff ff       	jmpq   1020 <.plt>

0000000000001100 <ERR_print_errors_fp@plt>:
    1100:	ff 25 b2 1e 06 00    	jmpq   *0x61eb2(%rip)        # 62fb8 <ERR_print_errors_fp@OPENSSL_1_1_0>
    1106:	68 0d 00 00 00       	pushq  $0xd
    110b:	e9 10 ff ff ff       	jmpq   1020 <.plt>

0000000000001110 <memcpy@plt>:
    1110:	ff 25 aa 1e 06 00    	jmpq   *0x61eaa(%rip)        # 62fc0 <memcpy@GLIBC_2.14>
    1116:	68 0e 00 00 00       	pushq  $0xe
    111b:	e9 00 ff ff ff       	jmpq   1020 <.plt>

0000000000001120 <EVP_EncryptInit_ex@plt>:
    1120:	ff 25 a2 1e 06 00    	jmpq   *0x61ea2(%rip)        # 62fc8 <EVP_EncryptInit_ex@OPENSSL_1_1_0>
    1126:	68 0f 00 00 00       	pushq  $0xf
    112b:	e9 f0 fe ff ff       	jmpq   1020 <.plt>

0000000000001130 <EVP_EncryptUpdate@plt>:
    1130:	ff 25 9a 1e 06 00    	jmpq   *0x61e9a(%rip)        # 62fd0 <EVP_EncryptUpdate@OPENSSL_1_1_0>
    1136:	68 10 00 00 00       	pushq  $0x10
    113b:	e9 e0 fe ff ff       	jmpq   1020 <.plt>

Disassembly of section .plt.got:

0000000000001140 <__cxa_finalize@plt>:
    1140:	ff 25 b2 1e 06 00    	jmpq   *0x61eb2(%rip)        # 62ff8 <__cxa_finalize@GLIBC_2.2.5>
    1146:	66 90                	xchg   %ax,%ax

Disassembly of section .text:

0000000000001160 <main>:
    1160:	f3 0f 1e fa          	endbr64 
    1164:	48 83 ec 08          	sub    $0x8,%rsp
    1168:	31 c0                	xor    %eax,%eax
    116a:	e8 f1 c9 05 00       	callq  5db60 <test_indcpa>
    116f:	31 c0                	xor    %eax,%eax
    1171:	48 83 c4 08          	add    $0x8,%rsp
    1175:	c3                   	retq   
    1176:	66 2e 0f 1f 84 00 00 	nopw   %cs:0x0(%rax,%rax,1)
    117d:	00 00 00 

0000000000001180 <_start>:
    1180:	f3 0f 1e fa          	endbr64 
    1184:	31 ed                	xor    %ebp,%ebp
    1186:	49 89 d1             	mov    %rdx,%r9
    1189:	5e                   	pop    %rsi
    118a:	48 89 e2             	mov    %rsp,%rdx
    118d:	48 83 e4 f0          	and    $0xfffffffffffffff0,%rsp
    1191:	50                   	push   %rax
    1192:	54                   	push   %rsp
    1193:	4c 8d 05 16 de 05 00 	lea    0x5de16(%rip),%r8        # 5efb0 <__libc_csu_fini>
    119a:	48 8d 0d 9f dd 05 00 	lea    0x5dd9f(%rip),%rcx        # 5ef40 <__libc_csu_init>
    11a1:	48 8d 3d b8 ff ff ff 	lea    -0x48(%rip),%rdi        # 1160 <main>
    11a8:	ff 15 32 1e 06 00    	callq  *0x61e32(%rip)        # 62fe0 <__libc_start_main@GLIBC_2.2.5>
    11ae:	f4                   	hlt    
    11af:	90                   	nop

00000000000011b0 <deregister_tm_clones>:
    11b0:	48 8d 3d 21 20 06 00 	lea    0x62021(%rip),%rdi        # 631d8 <__TMC_END__>
    11b7:	48 8d 05 1a 20 06 00 	lea    0x6201a(%rip),%rax        # 631d8 <__TMC_END__>
    11be:	48 39 f8             	cmp    %rdi,%rax
    11c1:	74 15                	je     11d8 <deregister_tm_clones+0x28>
    11c3:	48 8b 05 1e 1e 06 00 	mov    0x61e1e(%rip),%rax        # 62fe8 <_ITM_deregisterTMCloneTable>
    11ca:	48 85 c0             	test   %rax,%rax
    11cd:	74 09                	je     11d8 <deregister_tm_clones+0x28>
    11cf:	ff e0                	jmpq   *%rax
    11d1:	0f 1f 80 00 00 00 00 	nopl   0x0(%rax)
    11d8:	c3                   	retq   
    11d9:	0f 1f 80 00 00 00 00 	nopl   0x0(%rax)

00000000000011e0 <register_tm_clones>:
    11e0:	48 8d 3d f1 1f 06 00 	lea    0x61ff1(%rip),%rdi        # 631d8 <__TMC_END__>
    11e7:	48 8d 35 ea 1f 06 00 	lea    0x61fea(%rip),%rsi        # 631d8 <__TMC_END__>
    11ee:	48 29 fe             	sub    %rdi,%rsi
    11f1:	48 89 f0             	mov    %rsi,%rax
    11f4:	48 c1 ee 3f          	shr    $0x3f,%rsi
    11f8:	48 c1 f8 03          	sar    $0x3,%rax
    11fc:	48 01 c6             	add    %rax,%rsi
    11ff:	48 d1 fe             	sar    %rsi
    1202:	74 14                	je     1218 <register_tm_clones+0x38>
    1204:	48 8b 05 e5 1d 06 00 	mov    0x61de5(%rip),%rax        # 62ff0 <_ITM_registerTMCloneTable>
    120b:	48 85 c0             	test   %rax,%rax
    120e:	74 08                	je     1218 <register_tm_clones+0x38>
    1210:	ff e0                	jmpq   *%rax
    1212:	66 0f 1f 44 00 00    	nopw   0x0(%rax,%rax,1)
    1218:	c3                   	retq   
    1219:	0f 1f 80 00 00 00 00 	nopl   0x0(%rax)

0000000000001220 <__do_global_dtors_aux>:
    1220:	f3 0f 1e fa          	endbr64 
    1224:	80 3d bd 1f 06 00 00 	cmpb   $0x0,0x61fbd(%rip)        # 631e8 <completed.8059>
    122b:	75 2b                	jne    1258 <__do_global_dtors_aux+0x38>
    122d:	55                   	push   %rbp
    122e:	48 83 3d c2 1d 06 00 	cmpq   $0x0,0x61dc2(%rip)        # 62ff8 <__cxa_finalize@GLIBC_2.2.5>
    1235:	00 
    1236:	48 89 e5             	mov    %rsp,%rbp
    1239:	74 0c                	je     1247 <__do_global_dtors_aux+0x27>
    123b:	48 8b 3d c6 1d 06 00 	mov    0x61dc6(%rip),%rdi        # 63008 <__dso_handle>
    1242:	e8 f9 fe ff ff       	callq  1140 <__cxa_finalize@plt>
    1247:	e8 64 ff ff ff       	callq  11b0 <deregister_tm_clones>
    124c:	c6 05 95 1f 06 00 01 	movb   $0x1,0x61f95(%rip)        # 631e8 <completed.8059>
    1253:	5d                   	pop    %rbp
    1254:	c3                   	retq   
    1255:	0f 1f 00             	nopl   (%rax)
    1258:	c3                   	retq   
    1259:	0f 1f 80 00 00 00 00 	nopl   0x0(%rax)

0000000000001260 <frame_dummy>:
    1260:	f3 0f 1e fa          	endbr64 
    1264:	e9 77 ff ff ff       	jmpq   11e0 <register_tm_clones>
    1269:	0f 1f 80 00 00 00 00 	nopl   0x0(%rax)

0000000000001270 <cbd>:
    1270:	f3 0f 1e fa          	endbr64 
    1274:	48 8d 87 00 02 00 00 	lea    0x200(%rdi),%rax
    127b:	48 39 c6             	cmp    %rax,%rsi
    127e:	73 10                	jae    1290 <cbd+0x20>
    1280:	48 8d 86 00 01 00 00 	lea    0x100(%rsi),%rax
    1287:	48 39 c7             	cmp    %rax,%rdi
    128a:	0f 82 4e 02 00 00    	jb     14de <cbd+0x26e>
    1290:	c5 fd 6f 3d 88 dd 05 	vmovdqa 0x5dd88(%rip),%ymm7        # 5f020 <_IO_stdin_used+0x20>
    1297:	00 
    1298:	c5 fd 6f 1d a0 dd 05 	vmovdqa 0x5dda0(%rip),%ymm3        # 5f040 <_IO_stdin_used+0x40>
    129f:	00 
    12a0:	31 c0                	xor    %eax,%eax
    12a2:	c5 7d 6f 05 b6 dd 05 	vmovdqa 0x5ddb6(%rip),%ymm8        # 5f060 <_IO_stdin_used+0x60>
    12a9:	00 
    12aa:	c5 7d 6f 0d ce dd 05 	vmovdqa 0x5ddce(%rip),%ymm9        # 5f080 <_IO_stdin_used+0x80>
    12b1:	00 
    12b2:	c5 fa 6f 34 06       	vmovdqu (%rsi,%rax,1),%xmm6
    12b7:	c4 e3 4d 38 4c 06 10 	vinserti128 $0x1,0x10(%rsi,%rax,1),%ymm6,%ymm1
    12be:	01 
    12bf:	c5 fa 6f 74 06 20    	vmovdqu 0x20(%rsi,%rax,1),%xmm6
    12c5:	c4 e3 4d 38 54 06 30 	vinserti128 $0x1,0x30(%rsi,%rax,1),%ymm6,%ymm2
    12cc:	01 
    12cd:	c5 fd 72 d1 02       	vpsrld $0x2,%ymm1,%ymm0
    12d2:	c5 dd 72 d1 01       	vpsrld $0x1,%ymm1,%ymm4
    12d7:	c5 fd db c7          	vpand  %ymm7,%ymm0,%ymm0
    12db:	c5 dd db e7          	vpand  %ymm7,%ymm4,%ymm4
    12df:	c5 fd fe e4          	vpaddd %ymm4,%ymm0,%ymm4
    12e3:	c5 fd 72 d1 03       	vpsrld $0x3,%ymm1,%ymm0
    12e8:	c5 c5 db c9          	vpand  %ymm1,%ymm7,%ymm1
    12ec:	c5 fd db c7          	vpand  %ymm7,%ymm0,%ymm0
    12f0:	c5 fd fe c9          	vpaddd %ymm1,%ymm0,%ymm1
    12f4:	c5 dd fe c1          	vpaddd %ymm1,%ymm4,%ymm0
    12f8:	c5 f5 72 d2 02       	vpsrld $0x2,%ymm2,%ymm1
    12fd:	c5 dd 72 d2 01       	vpsrld $0x1,%ymm2,%ymm4
    1302:	c5 f5 db cf          	vpand  %ymm7,%ymm1,%ymm1
    1306:	c5 dd db e7          	vpand  %ymm7,%ymm4,%ymm4
    130a:	c5 f5 fe e4          	vpaddd %ymm4,%ymm1,%ymm4
    130e:	c5 f5 72 d2 03       	vpsrld $0x3,%ymm2,%ymm1
    1313:	c5 c5 db d2          	vpand  %ymm2,%ymm7,%ymm2
    1317:	c5 f5 db cf          	vpand  %ymm7,%ymm1,%ymm1
    131b:	c5 f5 fe d2          	vpaddd %ymm2,%ymm1,%ymm2
    131f:	c5 dd fe ca          	vpaddd %ymm2,%ymm4,%ymm1
    1323:	c5 e5 db e0          	vpand  %ymm0,%ymm3,%ymm4
    1327:	c5 d5 72 d1 04       	vpsrld $0x4,%ymm1,%ymm5
    132c:	c5 cd 72 d1 0c       	vpsrld $0xc,%ymm1,%ymm6
    1331:	c5 e5 db d1          	vpand  %ymm1,%ymm3,%ymm2
    1335:	c4 e2 5d 2b e2       	vpackusdw %ymm2,%ymm4,%ymm4
    133a:	c5 ed 72 d0 04       	vpsrld $0x4,%ymm0,%ymm2
    133f:	c5 e5 db ed          	vpand  %ymm5,%ymm3,%ymm5
    1343:	c5 e5 db d2          	vpand  %ymm2,%ymm3,%ymm2
    1347:	c4 e3 fd 00 e4 d8    	vpermq $0xd8,%ymm4,%ymm4
    134d:	c5 e5 db f6          	vpand  %ymm6,%ymm3,%ymm6
    1351:	c4 e2 6d 2b d5       	vpackusdw %ymm5,%ymm2,%ymm2
    1356:	c5 d5 72 d1 08       	vpsrld $0x8,%ymm1,%ymm5
    135b:	c5 bd db e4          	vpand  %ymm4,%ymm8,%ymm4
    135f:	c4 e3 fd 00 d2 d8    	vpermq $0xd8,%ymm2,%ymm2
    1365:	c5 ad 72 d1 14       	vpsrld $0x14,%ymm1,%ymm10
    136a:	c5 e5 db ed          	vpand  %ymm5,%ymm3,%ymm5
    136e:	c5 bd db d2          	vpand  %ymm2,%ymm8,%ymm2
    1372:	c4 41 65 db d2       	vpand  %ymm10,%ymm3,%ymm10
    1377:	c5 dd f9 e2          	vpsubw %ymm2,%ymm4,%ymm4
    137b:	c5 ed 72 d0 08       	vpsrld $0x8,%ymm0,%ymm2
    1380:	c5 e5 db d2          	vpand  %ymm2,%ymm3,%ymm2
    1384:	c4 c1 5d db e1       	vpand  %ymm9,%ymm4,%ymm4
    1389:	c4 e2 6d 2b d5       	vpackusdw %ymm5,%ymm2,%ymm2
    138e:	c5 d5 72 d0 0c       	vpsrld $0xc,%ymm0,%ymm5
    1393:	c5 e5 db ed          	vpand  %ymm5,%ymm3,%ymm5
    1397:	c4 e3 fd 00 d2 d8    	vpermq $0xd8,%ymm2,%ymm2
    139d:	c4 e2 55 2b ee       	vpackusdw %ymm6,%ymm5,%ymm5
    13a2:	c5 cd 72 d0 10       	vpsrld $0x10,%ymm0,%ymm6
    13a7:	c5 bd db d2          	vpand  %ymm2,%ymm8,%ymm2
    13ab:	c4 e3 fd 00 ed d8    	vpermq $0xd8,%ymm5,%ymm5
    13b1:	c5 e5 db f6          	vpand  %ymm6,%ymm3,%ymm6
    13b5:	c5 bd db ed          	vpand  %ymm5,%ymm8,%ymm5
    13b9:	c5 ed f9 d5          	vpsubw %ymm5,%ymm2,%ymm2
    13bd:	c5 d5 72 d1 10       	vpsrld $0x10,%ymm1,%ymm5
    13c2:	c5 e5 db ed          	vpand  %ymm5,%ymm3,%ymm5
    13c6:	c4 c1 6d db d1       	vpand  %ymm9,%ymm2,%ymm2
    13cb:	c4 e2 4d 2b f5       	vpackusdw %ymm5,%ymm6,%ymm6
    13d0:	c5 d5 72 d0 14       	vpsrld $0x14,%ymm0,%ymm5
    13d5:	c5 e5 db ed          	vpand  %ymm5,%ymm3,%ymm5
    13d9:	c4 e3 fd 00 f6 d8    	vpermq $0xd8,%ymm6,%ymm6
    13df:	c4 c2 55 2b ea       	vpackusdw %ymm10,%ymm5,%ymm5
    13e4:	c5 ad 72 d1 18       	vpsrld $0x18,%ymm1,%ymm10
    13e9:	c5 bd db f6          	vpand  %ymm6,%ymm8,%ymm6
    13ed:	c4 e3 fd 00 ed d8    	vpermq $0xd8,%ymm5,%ymm5
    13f3:	c5 f5 72 d1 1c       	vpsrld $0x1c,%ymm1,%ymm1
    13f8:	c4 41 65 db d2       	vpand  %ymm10,%ymm3,%ymm10
    13fd:	c5 bd db ed          	vpand  %ymm5,%ymm8,%ymm5
    1401:	c5 e5 db c9          	vpand  %ymm1,%ymm3,%ymm1
    1405:	c5 cd f9 f5          	vpsubw %ymm5,%ymm6,%ymm6
    1409:	c5 d5 72 d0 18       	vpsrld $0x18,%ymm0,%ymm5
    140e:	c5 e5 db ed          	vpand  %ymm5,%ymm3,%ymm5
    1412:	c5 fd 72 d0 1c       	vpsrld $0x1c,%ymm0,%ymm0
    1417:	c4 c1 4d db f1       	vpand  %ymm9,%ymm6,%ymm6
    141c:	c4 c2 55 2b ea       	vpackusdw %ymm10,%ymm5,%ymm5
    1421:	c5 e5 db c0          	vpand  %ymm0,%ymm3,%ymm0
    1425:	c4 e2 7d 2b c1       	vpackusdw %ymm1,%ymm0,%ymm0
    142a:	c4 e3 fd 00 ed d8    	vpermq $0xd8,%ymm5,%ymm5
    1430:	c5 dd 61 ce          	vpunpcklwd %ymm6,%ymm4,%ymm1
    1434:	c5 bd db ed          	vpand  %ymm5,%ymm8,%ymm5
    1438:	c4 e3 fd 00 c0 d8    	vpermq $0xd8,%ymm0,%ymm0
    143e:	c5 dd 69 e6          	vpunpckhwd %ymm6,%ymm4,%ymm4
    1442:	c5 d5 f9 c0          	vpsubw %ymm0,%ymm5,%ymm0
    1446:	c4 e3 75 46 ec 20    	vperm2i128 $0x20,%ymm4,%ymm1,%ymm5
    144c:	c4 e3 75 46 cc 31    	vperm2i128 $0x31,%ymm4,%ymm1,%ymm1
    1452:	c4 c1 7d db c1       	vpand  %ymm9,%ymm0,%ymm0
    1457:	c5 ed 61 e0          	vpunpcklwd %ymm0,%ymm2,%ymm4
    145b:	c5 ed 69 d0          	vpunpckhwd %ymm0,%ymm2,%ymm2
    145f:	c4 e3 5d 46 f2 20    	vperm2i128 $0x20,%ymm2,%ymm4,%ymm6
    1465:	c4 e3 5d 46 d2 31    	vperm2i128 $0x31,%ymm2,%ymm4,%ymm2
    146b:	c5 d5 61 c6          	vpunpcklwd %ymm6,%ymm5,%ymm0
    146f:	c5 d5 69 e6          	vpunpckhwd %ymm6,%ymm5,%ymm4
    1473:	c4 e3 7d 46 ec 20    	vperm2i128 $0x20,%ymm4,%ymm0,%ymm5
    1479:	c4 e3 7d 46 c4 31    	vperm2i128 $0x31,%ymm4,%ymm0,%ymm0
    147f:	c5 f8 11 44 47 20    	vmovups %xmm0,0x20(%rdi,%rax,2)
    1485:	c4 e3 7d 39 44 47 30 	vextracti128 $0x1,%ymm0,0x30(%rdi,%rax,2)
    148c:	01 
    148d:	c5 f5 61 c2          	vpunpcklwd %ymm2,%ymm1,%ymm0
    1491:	c5 f5 69 ca          	vpunpckhwd %ymm2,%ymm1,%ymm1
    1495:	c4 e3 7d 46 d1 20    	vperm2i128 $0x20,%ymm1,%ymm0,%ymm2
    149b:	c4 e3 7d 46 c1 31    	vperm2i128 $0x31,%ymm1,%ymm0,%ymm0
    14a1:	c5 f8 11 2c 47       	vmovups %xmm5,(%rdi,%rax,2)
    14a6:	c4 e3 7d 39 6c 47 10 	vextracti128 $0x1,%ymm5,0x10(%rdi,%rax,2)
    14ad:	01 
    14ae:	c5 f8 11 54 47 40    	vmovups %xmm2,0x40(%rdi,%rax,2)
    14b4:	c4 e3 7d 39 54 47 50 	vextracti128 $0x1,%ymm2,0x50(%rdi,%rax,2)
    14bb:	01 
    14bc:	c4 e3 7d 39 44 47 70 	vextracti128 $0x1,%ymm0,0x70(%rdi,%rax,2)
    14c3:	01 
    14c4:	c5 f8 11 44 47 60    	vmovups %xmm0,0x60(%rdi,%rax,2)
    14ca:	48 83 c0 40          	add    $0x40,%rax
    14ce:	48 3d 00 01 00 00    	cmp    $0x100,%rax
    14d4:	0f 85 d8 fd ff ff    	jne    12b2 <cbd+0x42>
    14da:	c5 f8 77             	vzeroupper 
    14dd:	c3                   	retq   
    14de:	31 d2                	xor    %edx,%edx
    14e0:	8b 04 96             	mov    (%rsi,%rdx,4),%eax
    14e3:	89 c1                	mov    %eax,%ecx
    14e5:	c1 e9 02             	shr    $0x2,%ecx
    14e8:	81 e1 11 11 11 11    	and    $0x11111111,%ecx
    14ee:	41 89 c8             	mov    %ecx,%r8d
    14f1:	89 c1                	mov    %eax,%ecx
    14f3:	d1 e9                	shr    %ecx
    14f5:	81 e1 11 11 11 11    	and    $0x11111111,%ecx
    14fb:	44 01 c1             	add    %r8d,%ecx
    14fe:	41 89 c0             	mov    %eax,%r8d
    1501:	c1 e8 03             	shr    $0x3,%eax
    1504:	41 81 e0 11 11 11 11 	and    $0x11111111,%r8d
    150b:	25 11 11 11 11       	and    $0x11111111,%eax
    1510:	44 01 c1             	add    %r8d,%ecx
    1513:	01 c8                	add    %ecx,%eax
    1515:	41 89 c0             	mov    %eax,%r8d
    1518:	89 c1                	mov    %eax,%ecx
    151a:	41 c1 e8 04          	shr    $0x4,%r8d
    151e:	83 e1 0f             	and    $0xf,%ecx
    1521:	41 83 e0 0f          	and    $0xf,%r8d
    1525:	44 29 c1             	sub    %r8d,%ecx
    1528:	41 89 c0             	mov    %eax,%r8d
    152b:	66 81 e1 ff 1f       	and    $0x1fff,%cx
    1530:	66 41 c1 e8 0c       	shr    $0xc,%r8w
    1535:	66 89 0c d7          	mov    %cx,(%rdi,%rdx,8)
    1539:	89 c1                	mov    %eax,%ecx
    153b:	c1 e9 08             	shr    $0x8,%ecx
    153e:	83 e1 0f             	and    $0xf,%ecx
    1541:	44 29 c1             	sub    %r8d,%ecx
    1544:	41 89 c0             	mov    %eax,%r8d
    1547:	66 81 e1 ff 1f       	and    $0x1fff,%cx
    154c:	41 c1 e8 14          	shr    $0x14,%r8d
    1550:	66 89 4c d7 02       	mov    %cx,0x2(%rdi,%rdx,8)
    1555:	89 c1                	mov    %eax,%ecx
    1557:	41 83 e0 0f          	and    $0xf,%r8d
    155b:	c1 e9 10             	shr    $0x10,%ecx
    155e:	83 e1 0f             	and    $0xf,%ecx
    1561:	44 29 c1             	sub    %r8d,%ecx
    1564:	66 81 e1 ff 1f       	and    $0x1fff,%cx
    1569:	66 89 4c d7 04       	mov    %cx,0x4(%rdi,%rdx,8)
    156e:	89 c1                	mov    %eax,%ecx
    1570:	c1 e8 1c             	shr    $0x1c,%eax
    1573:	c1 e9 18             	shr    $0x18,%ecx
    1576:	83 e1 0f             	and    $0xf,%ecx
    1579:	29 c1                	sub    %eax,%ecx
    157b:	89 c8                	mov    %ecx,%eax
    157d:	66 25 ff 1f          	and    $0x1fff,%ax
    1581:	66 89 44 d7 06       	mov    %ax,0x6(%rdi,%rdx,8)
    1586:	48 83 c2 01          	add    $0x1,%rdx
    158a:	48 83 fa 40          	cmp    $0x40,%rdx
    158e:	0f 85 4c ff ff ff    	jne    14e0 <cbd+0x270>
    1594:	c3                   	retq   
    1595:	66 2e 0f 1f 84 00 00 	nopw   %cs:0x0(%rax,%rax,1)
    159c:	00 00 00 
    159f:	90                   	nop

00000000000015a0 <load64>:
    15a0:	f3 0f 1e fa          	endbr64 
    15a4:	0f b6 47 01          	movzbl 0x1(%rdi),%eax
    15a8:	0f b6 57 02          	movzbl 0x2(%rdi),%edx
    15ac:	48 c1 e0 08          	shl    $0x8,%rax
    15b0:	48 c1 e2 10          	shl    $0x10,%rdx
    15b4:	48 09 d0             	or     %rdx,%rax
    15b7:	0f b6 57 03          	movzbl 0x3(%rdi),%edx
    15bb:	48 c1 e2 18          	shl    $0x18,%rdx
    15bf:	48 09 d0             	or     %rdx,%rax
    15c2:	0f b6 17             	movzbl (%rdi),%edx
    15c5:	48 09 d0             	or     %rdx,%rax
    15c8:	0f b6 57 04          	movzbl 0x4(%rdi),%edx
    15cc:	48 c1 e2 20          	shl    $0x20,%rdx
    15d0:	48 09 d0             	or     %rdx,%rax
    15d3:	0f b6 57 05          	movzbl 0x5(%rdi),%edx
    15d7:	48 c1 e2 28          	shl    $0x28,%rdx
    15db:	48 09 c2             	or     %rax,%rdx
    15de:	0f b6 47 06          	movzbl 0x6(%rdi),%eax
    15e2:	48 c1 e0 30          	shl    $0x30,%rax
    15e6:	48 09 c2             	or     %rax,%rdx
    15e9:	0f b6 47 07          	movzbl 0x7(%rdi),%eax
    15ed:	48 c1 e0 38          	shl    $0x38,%rax
    15f1:	48 09 d0             	or     %rdx,%rax
    15f4:	c3                   	retq   
    15f5:	66 66 2e 0f 1f 84 00 	data16 nopw %cs:0x0(%rax,%rax,1)
    15fc:	00 00 00 00 

0000000000001600 <store64>:
    1600:	f3 0f 1e fa          	endbr64 
    1604:	48 89 37             	mov    %rsi,(%rdi)
    1607:	c3                   	retq   
    1608:	0f 1f 84 00 00 00 00 	nopl   0x0(%rax,%rax,1)
    160f:	00 

0000000000001610 <KeccakF1600_StatePermute>:
    1610:	f3 0f 1e fa          	endbr64 
    1614:	55                   	push   %rbp
    1615:	48 89 f8             	mov    %rdi,%rax
    1618:	48 89 e5             	mov    %rsp,%rbp
    161b:	41 57                	push   %r15
    161d:	41 56                	push   %r14
    161f:	41 55                	push   %r13
    1621:	41 54                	push   %r12
    1623:	53                   	push   %rbx
    1624:	48 83 e4 e0          	and    $0xffffffffffffffe0,%rsp
    1628:	48 83 ec 68          	sub    $0x68,%rsp
    162c:	48 89 7c 24 90       	mov    %rdi,-0x70(%rsp)
    1631:	48 8b 1f             	mov    (%rdi),%rbx
    1634:	48 89 5c 24 58       	mov    %rbx,0x58(%rsp)
    1639:	48 8b 5f 08          	mov    0x8(%rdi),%rbx
    163d:	48 89 5c 24 50       	mov    %rbx,0x50(%rsp)
    1642:	48 8b 5f 10          	mov    0x10(%rdi),%rbx
    1646:	48 89 5c 24 48       	mov    %rbx,0x48(%rsp)
    164b:	48 8b 5f 18          	mov    0x18(%rdi),%rbx
    164f:	48 89 5c 24 40       	mov    %rbx,0x40(%rsp)
    1654:	48 8b 5f 20          	mov    0x20(%rdi),%rbx
    1658:	48 89 5c 24 38       	mov    %rbx,0x38(%rsp)
    165d:	48 8b 5f 28          	mov    0x28(%rdi),%rbx
    1661:	48 89 5c 24 30       	mov    %rbx,0x30(%rsp)
    1666:	48 8b 5f 30          	mov    0x30(%rdi),%rbx
    166a:	48 89 5c 24 28       	mov    %rbx,0x28(%rsp)
    166f:	48 8b 5f 38          	mov    0x38(%rdi),%rbx
    1673:	48 89 5c 24 20       	mov    %rbx,0x20(%rsp)
    1678:	48 8b 5f 40          	mov    0x40(%rdi),%rbx
    167c:	48 89 5c 24 18       	mov    %rbx,0x18(%rsp)
    1681:	48 8b 5f 48          	mov    0x48(%rdi),%rbx
    1685:	48 89 5c 24 10       	mov    %rbx,0x10(%rsp)
    168a:	48 8b 5f 50          	mov    0x50(%rdi),%rbx
    168e:	48 89 5c 24 08       	mov    %rbx,0x8(%rsp)
    1693:	48 8b 5f 58          	mov    0x58(%rdi),%rbx
    1697:	4c 8b a0 c0 00 00 00 	mov    0xc0(%rax),%r12
    169e:	4c 8b 7f 60          	mov    0x60(%rdi),%r15
    16a2:	48 89 1c 24          	mov    %rbx,(%rsp)
    16a6:	48 8b 5f 68          	mov    0x68(%rdi),%rbx
    16aa:	48 8b b7 80 00 00 00 	mov    0x80(%rdi),%rsi
    16b1:	4c 8b 9f 90 00 00 00 	mov    0x90(%rdi),%r11
    16b8:	48 89 5c 24 f8       	mov    %rbx,-0x8(%rsp)
    16bd:	48 8b 5f 70          	mov    0x70(%rdi),%rbx
    16c1:	48 89 5c 24 f0       	mov    %rbx,-0x10(%rsp)
    16c6:	48 8b 5f 78          	mov    0x78(%rdi),%rbx
    16ca:	48 89 5c 24 e8       	mov    %rbx,-0x18(%rsp)
    16cf:	48 8b 9f 88 00 00 00 	mov    0x88(%rdi),%rbx
    16d6:	48 89 5c 24 e0       	mov    %rbx,-0x20(%rsp)
    16db:	48 8b 9f 98 00 00 00 	mov    0x98(%rdi),%rbx
    16e2:	48 89 5c 24 d8       	mov    %rbx,-0x28(%rsp)
    16e7:	48 8b 9f a0 00 00 00 	mov    0xa0(%rdi),%rbx
    16ee:	48 89 5c 24 d0       	mov    %rbx,-0x30(%rsp)
    16f3:	48 8b 9f a8 00 00 00 	mov    0xa8(%rdi),%rbx
    16fa:	48 8b bf b0 00 00 00 	mov    0xb0(%rdi),%rdi
    1701:	48 89 5c 24 c8       	mov    %rbx,-0x38(%rsp)
    1706:	48 8b 98 b8 00 00 00 	mov    0xb8(%rax),%rbx
    170d:	48 8d 05 8c d9 05 00 	lea    0x5d98c(%rip),%rax        # 5f0a0 <KeccakF_RoundConstants>
    1714:	48 89 44 24 60       	mov    %rax,0x60(%rsp)
    1719:	48 89 5c 24 c0       	mov    %rbx,-0x40(%rsp)
    171e:	66 90                	xchg   %ax,%ax
    1720:	4c 8b 6c 24 48       	mov    0x48(%rsp),%r13
    1725:	4c 33 6c 24 20       	xor    0x20(%rsp),%r13
    172a:	4d 31 fd             	xor    %r15,%r13
    172d:	48 8b 5c 24 50       	mov    0x50(%rsp),%rbx
    1732:	4c 33 6c 24 e0       	xor    -0x20(%rsp),%r13
    1737:	48 33 5c 24 28       	xor    0x28(%rsp),%rbx
    173c:	48 33 1c 24          	xor    (%rsp),%rbx
    1740:	4c 89 e8             	mov    %r13,%rax
    1743:	48 31 f3             	xor    %rsi,%rbx
    1746:	48 33 5c 24 c8       	xor    -0x38(%rsp),%rbx
    174b:	48 31 f8             	xor    %rdi,%rax
    174e:	48 8b 4c 24 40       	mov    0x40(%rsp),%rcx
    1753:	4c 8b 6c 24 38       	mov    0x38(%rsp),%r13
    1758:	48 33 4c 24 18       	xor    0x18(%rsp),%rcx
    175d:	49 89 da             	mov    %rbx,%r10
    1760:	48 89 c2             	mov    %rax,%rdx
    1763:	49 d1 c2             	rol    %r10
    1766:	48 33 4c 24 f8       	xor    -0x8(%rsp),%rcx
    176b:	4c 33 6c 24 10       	xor    0x10(%rsp),%r13
    1770:	48 d1 c2             	rol    %rdx
    1773:	4c 33 6c 24 f0       	xor    -0x10(%rsp),%r13
    1778:	4c 33 6c 24 d8       	xor    -0x28(%rsp),%r13
    177d:	4c 31 d9             	xor    %r11,%rcx
    1780:	4d 31 e5             	xor    %r12,%r13
    1783:	48 33 4c 24 c0       	xor    -0x40(%rsp),%rcx
    1788:	4c 8b 44 24 58       	mov    0x58(%rsp),%r8
    178d:	4d 31 ea             	xor    %r13,%r10
    1790:	4c 33 44 24 30       	xor    0x30(%rsp),%r8
    1795:	49 89 ce             	mov    %rcx,%r14
    1798:	4c 33 44 24 08       	xor    0x8(%rsp),%r8
    179d:	49 d1 c5             	rol    %r13
    17a0:	4c 33 44 24 e8       	xor    -0x18(%rsp),%r8
    17a5:	4c 33 44 24 d0       	xor    -0x30(%rsp),%r8
    17aa:	49 d1 c6             	rol    %r14
    17ad:	4c 31 c2             	xor    %r8,%rdx
    17b0:	49 31 c5             	xor    %rax,%r13
    17b3:	4c 89 c0             	mov    %r8,%rax
    17b6:	4c 8b 44 24 28       	mov    0x28(%rsp),%r8
    17bb:	4c 31 f3             	xor    %r14,%rbx
    17be:	48 d1 c0             	rol    %rax
    17c1:	4c 8b 74 24 58       	mov    0x58(%rsp),%r14
    17c6:	49 89 c9             	mov    %rcx,%r9
    17c9:	49 31 d0             	xor    %rdx,%r8
    17cc:	48 89 c1             	mov    %rax,%rcx
    17cf:	4c 31 c9             	xor    %r9,%rcx
    17d2:	4d 31 d6             	xor    %r10,%r14
    17d5:	49 c1 c8 14          	ror    $0x14,%r8
    17d9:	49 31 df             	xor    %rbx,%r15
    17dc:	4c 89 c0             	mov    %r8,%rax
    17df:	49 c1 cf 15          	ror    $0x15,%r15
    17e3:	4c 8b 4c 24 60       	mov    0x60(%rsp),%r9
    17e8:	4d 31 eb             	xor    %r13,%r11
    17eb:	48 f7 d0             	not    %rax
    17ee:	49 c1 c3 15          	rol    $0x15,%r11
    17f2:	49 31 cc             	xor    %rcx,%r12
    17f5:	48 31 d6             	xor    %rdx,%rsi
    17f8:	49 c1 c4 0e          	rol    $0xe,%r12
    17fc:	4c 21 f8             	and    %r15,%rax
    17ff:	48 c1 ce 13          	ror    $0x13,%rsi
    1803:	48 31 df             	xor    %rbx,%rdi
    1806:	48 89 44 24 58       	mov    %rax,0x58(%rsp)
    180b:	49 8b 01             	mov    (%r9),%rax
    180e:	48 c1 cf 03          	ror    $0x3,%rdi
    1812:	4c 31 f0             	xor    %r14,%rax
    1815:	49 89 c1             	mov    %rax,%r9
    1818:	48 8b 44 24 58       	mov    0x58(%rsp),%rax
    181d:	4c 31 c8             	xor    %r9,%rax
    1820:	48 89 44 24 58       	mov    %rax,0x58(%rsp)
    1825:	4c 89 f8             	mov    %r15,%rax
    1828:	48 f7 d0             	not    %rax
    182b:	4c 21 d8             	and    %r11,%rax
    182e:	4c 31 c0             	xor    %r8,%rax
    1831:	48 89 44 24 b8       	mov    %rax,-0x48(%rsp)
    1836:	4c 89 d8             	mov    %r11,%rax
    1839:	48 f7 d0             	not    %rax
    183c:	4c 21 e0             	and    %r12,%rax
    183f:	4c 31 f8             	xor    %r15,%rax
    1842:	4d 89 e7             	mov    %r12,%r15
    1845:	49 f7 d7             	not    %r15
    1848:	48 89 44 24 b0       	mov    %rax,-0x50(%rsp)
    184d:	4c 89 f8             	mov    %r15,%rax
    1850:	4c 21 f0             	and    %r14,%rax
    1853:	49 f7 d6             	not    %r14
    1856:	4d 21 c6             	and    %r8,%r14
    1859:	49 89 c7             	mov    %rax,%r15
    185c:	4c 8b 44 24 40       	mov    0x40(%rsp),%r8
    1861:	4d 31 df             	xor    %r11,%r15
    1864:	4d 89 f3             	mov    %r14,%r11
    1867:	4d 31 e3             	xor    %r12,%r11
    186a:	4c 89 7c 24 28       	mov    %r15,0x28(%rsp)
    186f:	4d 31 e8             	xor    %r13,%r8
    1872:	4c 89 5c 24 a8       	mov    %r11,-0x58(%rsp)
    1877:	4c 8b 74 24 10       	mov    0x10(%rsp),%r14
    187c:	49 c1 c0 1c          	rol    $0x1c,%r8
    1880:	4c 8b 4c 24 08       	mov    0x8(%rsp),%r9
    1885:	49 31 ce             	xor    %rcx,%r14
    1888:	49 c1 c6 14          	rol    $0x14,%r14
    188c:	4d 31 d1             	xor    %r10,%r9
    188f:	4d 89 f3             	mov    %r14,%r11
    1892:	49 c1 c1 03          	rol    $0x3,%r9
    1896:	49 f7 d3             	not    %r11
    1899:	4d 89 cf             	mov    %r9,%r15
    189c:	4c 89 d8             	mov    %r11,%rax
    189f:	49 89 f3             	mov    %rsi,%r11
    18a2:	49 f7 d7             	not    %r15
    18a5:	4c 21 c8             	and    %r9,%rax
    18a8:	49 f7 d3             	not    %r11
    18ab:	49 21 f7             	and    %rsi,%r15
    18ae:	49 89 c4             	mov    %rax,%r12
    18b1:	4c 89 d8             	mov    %r11,%rax
    18b4:	4d 31 f7             	xor    %r14,%r15
    18b7:	4d 31 c4             	xor    %r8,%r12
    18ba:	48 21 f8             	and    %rdi,%rax
    18bd:	49 89 c3             	mov    %rax,%r11
    18c0:	4c 89 64 24 a0       	mov    %r12,-0x60(%rsp)
    18c5:	4d 31 cb             	xor    %r9,%r11
    18c8:	4c 8b 4c 24 f8       	mov    -0x8(%rsp),%r9
    18cd:	4c 89 5c 24 08       	mov    %r11,0x8(%rsp)
    18d2:	49 89 fb             	mov    %rdi,%r11
    18d5:	49 f7 d3             	not    %r11
    18d8:	4d 31 e9             	xor    %r13,%r9
    18db:	4d 89 dc             	mov    %r11,%r12
    18de:	4d 21 c4             	and    %r8,%r12
    18e1:	49 f7 d0             	not    %r8
    18e4:	4d 21 f0             	and    %r14,%r8
    18e7:	4c 8b 74 24 50       	mov    0x50(%rsp),%r14
    18ec:	49 31 f4             	xor    %rsi,%r12
    18ef:	49 31 f8             	xor    %rdi,%r8
    18f2:	48 8b 7c 24 d0       	mov    -0x30(%rsp),%rdi
    18f7:	4c 89 64 24 98       	mov    %r12,-0x68(%rsp)
    18fc:	4c 89 44 24 10       	mov    %r8,0x10(%rsp)
    1901:	4c 8b 44 24 20       	mov    0x20(%rsp),%r8
    1906:	49 31 d6             	xor    %rdx,%r14
    1909:	49 d1 c6             	rol    %r14
    190c:	4c 31 d7             	xor    %r10,%rdi
    190f:	49 31 d8             	xor    %rbx,%r8
    1912:	48 c1 c7 12          	rol    $0x12,%rdi
    1916:	4c 89 c0             	mov    %r8,%rax
    1919:	4d 89 c8             	mov    %r9,%r8
    191c:	4c 8b 4c 24 d8       	mov    -0x28(%rsp),%r9
    1921:	48 c1 c0 06          	rol    $0x6,%rax
    1925:	49 c1 c0 19          	rol    $0x19,%r8
    1929:	49 31 c9             	xor    %rcx,%r9
    192c:	4c 89 ce             	mov    %r9,%rsi
    192f:	49 89 c1             	mov    %rax,%r9
    1932:	49 f7 d1             	not    %r9
    1935:	48 c1 c6 08          	rol    $0x8,%rsi
    1939:	4d 21 c1             	and    %r8,%r9
    193c:	49 89 f3             	mov    %rsi,%r11
    193f:	4d 31 f1             	xor    %r14,%r9
    1942:	49 f7 d3             	not    %r11
    1945:	4c 89 4c 24 20       	mov    %r9,0x20(%rsp)
    194a:	4d 89 c1             	mov    %r8,%r9
    194d:	49 f7 d1             	not    %r9
    1950:	49 21 f1             	and    %rsi,%r9
    1953:	49 31 c1             	xor    %rax,%r9
    1956:	4c 89 4c 24 d8       	mov    %r9,-0x28(%rsp)
    195b:	4d 89 d9             	mov    %r11,%r9
    195e:	49 21 f9             	and    %rdi,%r9
    1961:	4d 31 c1             	xor    %r8,%r9
    1964:	49 89 f8             	mov    %rdi,%r8
    1967:	49 f7 d0             	not    %r8
    196a:	4d 21 f0             	and    %r14,%r8
    196d:	49 f7 d6             	not    %r14
    1970:	49 31 f0             	xor    %rsi,%r8
    1973:	48 8b 74 24 38       	mov    0x38(%rsp),%rsi
    1978:	49 21 c6             	and    %rax,%r14
    197b:	49 31 fe             	xor    %rdi,%r14
    197e:	4c 89 44 24 f8       	mov    %r8,-0x8(%rsp)
    1983:	48 31 ce             	xor    %rcx,%rsi
    1986:	4c 89 74 24 d0       	mov    %r14,-0x30(%rsp)
    198b:	48 89 f0             	mov    %rsi,%rax
    198e:	48 8b 74 24 30       	mov    0x30(%rsp),%rsi
    1993:	48 c1 c0 1b          	rol    $0x1b,%rax
    1997:	4c 31 d6             	xor    %r10,%rsi
    199a:	49 89 f4             	mov    %rsi,%r12
    199d:	48 8b 34 24          	mov    (%rsp),%rsi
    19a1:	49 c1 cc 1c          	ror    $0x1c,%r12
    19a5:	48 31 d6             	xor    %rdx,%rsi
    19a8:	49 89 f3             	mov    %rsi,%r11
    19ab:	48 8b 74 24 e0       	mov    -0x20(%rsp),%rsi
    19b0:	49 c1 c3 0a          	rol    $0xa,%r11
    19b4:	48 31 de             	xor    %rbx,%rsi
    19b7:	48 33 4c 24 f0       	xor    -0x10(%rsp),%rcx
    19bc:	4c 33 54 24 e8       	xor    -0x18(%rsp),%r10
    19c1:	48 c1 c6 0f          	rol    $0xf,%rsi
    19c5:	48 c1 c9 19          	ror    $0x19,%rcx
    19c9:	48 33 54 24 c8       	xor    -0x38(%rsp),%rdx
    19ce:	48 33 5c 24 48       	xor    0x48(%rsp),%rbx
    19d3:	49 c1 ca 17          	ror    $0x17,%r10
    19d7:	49 89 f6             	mov    %rsi,%r14
    19da:	48 8b 74 24 c0       	mov    -0x40(%rsp),%rsi
    19df:	48 c1 c2 02          	rol    $0x2,%rdx
    19e3:	4d 89 f0             	mov    %r14,%r8
    19e6:	48 c1 cb 02          	ror    $0x2,%rbx
    19ea:	4c 31 ee             	xor    %r13,%rsi
    19ed:	49 f7 d0             	not    %r8
    19f0:	4c 33 6c 24 18       	xor    0x18(%rsp),%r13
    19f5:	48 89 f7             	mov    %rsi,%rdi
    19f8:	4c 89 e6             	mov    %r12,%rsi
    19fb:	49 c1 cd 09          	ror    $0x9,%r13
    19ff:	48 c1 cf 08          	ror    $0x8,%rdi
    1a03:	48 f7 d6             	not    %rsi
    1a06:	4c 21 de             	and    %r11,%rsi
    1a09:	49 21 f8             	and    %rdi,%r8
    1a0c:	48 31 c6             	xor    %rax,%rsi
    1a0f:	4d 31 d8             	xor    %r11,%r8
    1a12:	48 89 74 24 c0       	mov    %rsi,-0x40(%rsp)
    1a17:	4c 89 de             	mov    %r11,%rsi
    1a1a:	4d 89 c3             	mov    %r8,%r11
    1a1d:	49 89 f8             	mov    %rdi,%r8
    1a20:	49 f7 d0             	not    %r8
    1a23:	48 f7 d6             	not    %rsi
    1a26:	49 21 c0             	and    %rax,%r8
    1a29:	48 f7 d0             	not    %rax
    1a2c:	4c 21 f6             	and    %r14,%rsi
    1a2f:	4c 21 e0             	and    %r12,%rax
    1a32:	4d 31 f0             	xor    %r14,%r8
    1a35:	4c 31 e6             	xor    %r12,%rsi
    1a38:	49 89 cc             	mov    %rcx,%r12
    1a3b:	49 89 c6             	mov    %rax,%r14
    1a3e:	49 f7 d4             	not    %r12
    1a41:	49 31 fe             	xor    %rdi,%r14
    1a44:	4c 89 ef             	mov    %r13,%rdi
    1a47:	4d 21 d4             	and    %r10,%r12
    1a4a:	48 f7 d7             	not    %rdi
    1a4d:	4c 89 34 24          	mov    %r14,(%rsp)
    1a51:	4d 31 ec             	xor    %r13,%r12
    1a54:	48 89 f8             	mov    %rdi,%rax
    1a57:	4c 89 64 24 c8       	mov    %r12,-0x38(%rsp)
    1a5c:	48 21 c8             	and    %rcx,%rax
    1a5f:	48 89 c7             	mov    %rax,%rdi
    1a62:	4c 89 d0             	mov    %r10,%rax
    1a65:	48 f7 d0             	not    %rax
    1a68:	48 31 df             	xor    %rbx,%rdi
    1a6b:	48 21 d0             	and    %rdx,%rax
    1a6e:	48 31 c1             	xor    %rax,%rcx
    1a71:	48 89 d0             	mov    %rdx,%rax
    1a74:	48 f7 d0             	not    %rax
    1a77:	48 89 4c 24 30       	mov    %rcx,0x30(%rsp)
    1a7c:	48 8b 4c 24 58       	mov    0x58(%rsp),%rcx
    1a81:	48 21 d8             	and    %rbx,%rax
    1a84:	48 f7 d3             	not    %rbx
    1a87:	49 89 c6             	mov    %rax,%r14
    1a8a:	4d 31 d6             	xor    %r10,%r14
    1a8d:	4c 21 eb             	and    %r13,%rbx
    1a90:	49 89 da             	mov    %rbx,%r10
    1a93:	4c 89 74 24 e8       	mov    %r14,-0x18(%rsp)
    1a98:	49 31 d2             	xor    %rdx,%r10
    1a9b:	4c 89 d0             	mov    %r10,%rax
    1a9e:	4c 8b 54 24 a0       	mov    -0x60(%rsp),%r10
    1aa3:	49 31 ca             	xor    %rcx,%r10
    1aa6:	4c 33 54 24 20       	xor    0x20(%rsp),%r10
    1aab:	48 8b 54 24 b0       	mov    -0x50(%rsp),%rdx
    1ab0:	48 89 7c 24 f0       	mov    %rdi,-0x10(%rsp)
    1ab5:	48 33 54 24 08       	xor    0x8(%rsp),%rdx
    1aba:	4c 8b 6c 24 30       	mov    0x30(%rsp),%r13
    1abf:	4c 89 5c 24 e0       	mov    %r11,-0x20(%rsp)
    1ac4:	4c 31 ca             	xor    %r9,%rdx
    1ac7:	4c 8b 64 24 b8       	mov    -0x48(%rsp),%r12
    1acc:	4c 33 54 24 c0       	xor    -0x40(%rsp),%r10
    1ad1:	4c 31 da             	xor    %r11,%rdx
    1ad4:	49 31 fa             	xor    %rdi,%r10
    1ad7:	48 8b 7c 24 28       	mov    0x28(%rsp),%rdi
    1adc:	48 33 7c 24 98       	xor    -0x68(%rsp),%rdi
    1ae1:	49 31 d5             	xor    %rdx,%r13
    1ae4:	4d 31 fc             	xor    %r15,%r12
    1ae7:	48 33 7c 24 f8       	xor    -0x8(%rsp),%rdi
    1aec:	4c 33 64 24 d8       	xor    -0x28(%rsp),%r12
    1af1:	4d 89 ee             	mov    %r13,%r14
    1af4:	49 31 f4             	xor    %rsi,%r12
    1af7:	4c 31 c7             	xor    %r8,%rdi
    1afa:	4c 33 64 24 c8       	xor    -0x38(%rsp),%r12
    1aff:	48 33 7c 24 e8       	xor    -0x18(%rsp),%rdi
    1b04:	48 8b 54 24 10       	mov    0x10(%rsp),%rdx
    1b09:	4d 89 e5             	mov    %r12,%r13
    1b0c:	4c 89 f3             	mov    %r14,%rbx
    1b0f:	49 d1 c5             	rol    %r13
    1b12:	49 89 fb             	mov    %rdi,%r11
    1b15:	48 33 54 24 d0       	xor    -0x30(%rsp),%rdx
    1b1a:	48 d1 c7             	rol    %rdi
    1b1d:	48 33 54 24 a8       	xor    -0x58(%rsp),%rdx
    1b22:	48 33 14 24          	xor    (%rsp),%rdx
    1b26:	49 31 fc             	xor    %rdi,%r12
    1b29:	48 d1 c3             	rol    %rbx
    1b2c:	48 31 c2             	xor    %rax,%rdx
    1b2f:	4c 89 d7             	mov    %r10,%rdi
    1b32:	4c 31 d3             	xor    %r10,%rbx
    1b35:	49 89 ca             	mov    %rcx,%r10
    1b38:	49 31 d5             	xor    %rdx,%r13
    1b3b:	48 d1 c7             	rol    %rdi
    1b3e:	48 d1 c2             	rol    %rdx
    1b41:	4c 31 df             	xor    %r11,%rdi
    1b44:	4c 31 f2             	xor    %r14,%rdx
    1b47:	4d 31 ea             	xor    %r13,%r10
    1b4a:	49 31 df             	xor    %rbx,%r15
    1b4d:	4d 31 e1             	xor    %r12,%r9
    1b50:	4d 89 fb             	mov    %r15,%r11
    1b53:	49 c1 c9 15          	ror    $0x15,%r9
    1b57:	49 31 d0             	xor    %rdx,%r8
    1b5a:	48 31 f8             	xor    %rdi,%rax
    1b5d:	49 c1 cb 14          	ror    $0x14,%r11
    1b61:	49 c1 c0 15          	rol    $0x15,%r8
    1b65:	48 31 de             	xor    %rbx,%rsi
    1b68:	48 c1 c0 0e          	rol    $0xe,%rax
    1b6c:	4d 89 df             	mov    %r11,%r15
    1b6f:	48 c1 ce 13          	ror    $0x13,%rsi
    1b73:	49 f7 d7             	not    %r15
    1b76:	4d 89 fe             	mov    %r15,%r14
    1b79:	4c 8b 7c 24 60       	mov    0x60(%rsp),%r15
    1b7e:	4d 21 ce             	and    %r9,%r14
    1b81:	49 8b 4f 08          	mov    0x8(%r15),%rcx
    1b85:	4c 31 d1             	xor    %r10,%rcx
    1b88:	49 89 cf             	mov    %rcx,%r15
    1b8b:	4c 89 f1             	mov    %r14,%rcx
    1b8e:	4c 31 f9             	xor    %r15,%rcx
    1b91:	4d 89 cf             	mov    %r9,%r15
    1b94:	49 f7 d7             	not    %r15
    1b97:	48 89 4c 24 58       	mov    %rcx,0x58(%rsp)
    1b9c:	48 8b 4c 24 30       	mov    0x30(%rsp),%rcx
    1ba1:	4d 89 fe             	mov    %r15,%r14
    1ba4:	4d 21 c6             	and    %r8,%r14
    1ba7:	4c 31 e1             	xor    %r12,%rcx
    1baa:	4d 89 f7             	mov    %r14,%r15
    1bad:	48 c1 c9 03          	ror    $0x3,%rcx
    1bb1:	4d 31 df             	xor    %r11,%r15
    1bb4:	4c 89 7c 24 50       	mov    %r15,0x50(%rsp)
    1bb9:	4d 89 c7             	mov    %r8,%r15
    1bbc:	49 f7 d7             	not    %r15
    1bbf:	4d 89 fe             	mov    %r15,%r14
    1bc2:	49 21 c6             	and    %rax,%r14
    1bc5:	4d 89 f7             	mov    %r14,%r15
    1bc8:	4d 31 cf             	xor    %r9,%r15
    1bcb:	49 89 c1             	mov    %rax,%r9
    1bce:	49 f7 d1             	not    %r9
    1bd1:	4c 89 7c 24 48       	mov    %r15,0x48(%rsp)
    1bd6:	4d 21 d1             	and    %r10,%r9
    1bd9:	49 f7 d2             	not    %r10
    1bdc:	4d 21 da             	and    %r11,%r10
    1bdf:	4d 31 c1             	xor    %r8,%r9
    1be2:	4c 8b 5c 24 28       	mov    0x28(%rsp),%r11
    1be7:	4d 89 d7             	mov    %r10,%r15
    1bea:	4c 89 4c 24 40       	mov    %r9,0x40(%rsp)
    1bef:	4c 8b 54 24 20       	mov    0x20(%rsp),%r10
    1bf4:	49 31 c7             	xor    %rax,%r15
    1bf7:	48 8b 44 24 10       	mov    0x10(%rsp),%rax
    1bfc:	49 31 d3             	xor    %rdx,%r11
    1bff:	4c 89 7c 24 38       	mov    %r15,0x38(%rsp)
    1c04:	4d 31 ea             	xor    %r13,%r10
    1c07:	49 c1 c3 1c          	rol    $0x1c,%r11
    1c0b:	48 31 f8             	xor    %rdi,%rax
    1c0e:	49 c1 c2 03          	rol    $0x3,%r10
    1c12:	49 89 c1             	mov    %rax,%r9
    1c15:	4d 89 d0             	mov    %r10,%r8
    1c18:	49 c1 c1 14          	rol    $0x14,%r9
    1c1c:	49 f7 d0             	not    %r8
    1c1f:	4d 89 cf             	mov    %r9,%r15
    1c22:	49 f7 d7             	not    %r15
    1c25:	4c 89 f8             	mov    %r15,%rax
    1c28:	4c 21 d0             	and    %r10,%rax
    1c2b:	49 89 c7             	mov    %rax,%r15
    1c2e:	4d 31 df             	xor    %r11,%r15
    1c31:	49 21 f0             	and    %rsi,%r8
    1c34:	4c 89 7c 24 30       	mov    %r15,0x30(%rsp)
    1c39:	49 89 f7             	mov    %rsi,%r15
    1c3c:	4d 31 c8             	xor    %r9,%r8
    1c3f:	49 f7 d7             	not    %r15
    1c42:	4c 89 44 24 28       	mov    %r8,0x28(%rsp)
    1c47:	4c 89 f8             	mov    %r15,%rax
    1c4a:	48 21 c8             	and    %rcx,%rax
    1c4d:	49 89 c7             	mov    %rax,%r15
    1c50:	4d 31 d7             	xor    %r10,%r15
    1c53:	4c 89 7c 24 20       	mov    %r15,0x20(%rsp)
    1c58:	49 89 cf             	mov    %rcx,%r15
    1c5b:	49 f7 d7             	not    %r15
    1c5e:	4c 89 f8             	mov    %r15,%rax
    1c61:	4c 21 d8             	and    %r11,%rax
    1c64:	49 f7 d3             	not    %r11
    1c67:	49 89 c7             	mov    %rax,%r15
    1c6a:	4d 21 cb             	and    %r9,%r11
    1c6d:	49 31 f7             	xor    %rsi,%r15
    1c70:	4c 89 7c 24 18       	mov    %r15,0x18(%rsp)
    1c75:	48 8b 74 24 08       	mov    0x8(%rsp),%rsi
    1c7a:	4d 89 df             	mov    %r11,%r15
    1c7d:	49 31 cf             	xor    %rcx,%r15
    1c80:	4c 8b 04 24          	mov    (%rsp),%r8
    1c84:	4c 8b 54 24 b8       	mov    -0x48(%rsp),%r10
    1c89:	4c 31 e6             	xor    %r12,%rsi
    1c8c:	48 8b 4c 24 f0       	mov    -0x10(%rsp),%rcx
    1c91:	4c 89 7c 24 10       	mov    %r15,0x10(%rsp)
    1c96:	48 89 f0             	mov    %rsi,%rax
    1c99:	48 8b 74 24 f8       	mov    -0x8(%rsp),%rsi
    1c9e:	49 31 da             	xor    %rbx,%r10
    1ca1:	49 31 f8             	xor    %rdi,%r8
    1ca4:	48 c1 c0 06          	rol    $0x6,%rax
    1ca8:	49 c1 c0 08          	rol    $0x8,%r8
    1cac:	4c 31 e9             	xor    %r13,%rcx
    1caf:	4c 8b 74 24 a0       	mov    -0x60(%rsp),%r14
    1cb4:	49 d1 c2             	rol    %r10
    1cb7:	48 31 d6             	xor    %rdx,%rsi
    1cba:	49 89 c1             	mov    %rax,%r9
    1cbd:	48 c1 c1 12          	rol    $0x12,%rcx
    1cc1:	48 c1 c6 19          	rol    $0x19,%rsi
    1cc5:	49 f7 d1             	not    %r9
    1cc8:	4d 31 ee             	xor    %r13,%r14
    1ccb:	49 89 f7             	mov    %rsi,%r15
    1cce:	49 21 f1             	and    %rsi,%r9
    1cd1:	49 f7 d7             	not    %r15
    1cd4:	4d 31 d1             	xor    %r10,%r9
    1cd7:	4d 89 fb             	mov    %r15,%r11
    1cda:	4c 89 4c 24 08       	mov    %r9,0x8(%rsp)
    1cdf:	49 89 c9             	mov    %rcx,%r9
    1ce2:	4d 21 c3             	and    %r8,%r11
    1ce5:	49 f7 d1             	not    %r9
    1ce8:	4d 89 df             	mov    %r11,%r15
    1ceb:	4d 21 d1             	and    %r10,%r9
    1cee:	49 f7 d2             	not    %r10
    1cf1:	4c 8b 5c 24 e0       	mov    -0x20(%rsp),%r11
    1cf6:	49 31 c7             	xor    %rax,%r15
    1cf9:	49 21 c2             	and    %rax,%r10
    1cfc:	4c 89 f0             	mov    %r14,%rax
    1cff:	4d 31 c1             	xor    %r8,%r9
    1d02:	4c 89 3c 24          	mov    %r15,(%rsp)
    1d06:	4d 89 c7             	mov    %r8,%r15
    1d09:	49 31 ca             	xor    %rcx,%r10
    1d0c:	48 c1 c8 1c          	ror    $0x1c,%rax
    1d10:	49 f7 d7             	not    %r15
    1d13:	4c 8b 74 24 e8       	mov    -0x18(%rsp),%r14
    1d18:	4c 89 4c 24 f8       	mov    %r9,-0x8(%rsp)
    1d1d:	49 21 cf             	and    %rcx,%r15
    1d20:	48 8b 4c 24 a8       	mov    -0x58(%rsp),%rcx
    1d25:	4c 89 54 24 f0       	mov    %r10,-0x10(%rsp)
    1d2a:	49 89 c2             	mov    %rax,%r10
    1d2d:	49 31 f7             	xor    %rsi,%r15
    1d30:	48 8b 74 24 d8       	mov    -0x28(%rsp),%rsi
    1d35:	49 f7 d2             	not    %r10
    1d38:	48 31 f9             	xor    %rdi,%rcx
    1d3b:	48 c1 c1 1b          	rol    $0x1b,%rcx
    1d3f:	48 31 de             	xor    %rbx,%rsi
    1d42:	4d 31 e3             	xor    %r12,%r11
    1d45:	49 31 d6             	xor    %rdx,%r14
    1d48:	49 c1 c3 0f          	rol    $0xf,%r11
    1d4c:	49 89 f1             	mov    %rsi,%r9
    1d4f:	49 c1 ce 08          	ror    $0x8,%r14
    1d53:	48 33 54 24 98       	xor    -0x68(%rsp),%rdx
    1d58:	49 c1 c1 0a          	rol    $0xa,%r9
    1d5c:	4d 89 d8             	mov    %r11,%r8
    1d5f:	48 33 7c 24 d0       	xor    -0x30(%rsp),%rdi
    1d64:	4c 33 64 24 b0       	xor    -0x50(%rsp),%r12
    1d69:	4d 21 ca             	and    %r9,%r10
    1d6c:	4c 89 ce             	mov    %r9,%rsi
    1d6f:	48 c1 cf 19          	ror    $0x19,%rdi
    1d73:	4c 33 6c 24 c0       	xor    -0x40(%rsp),%r13
    1d78:	49 31 ca             	xor    %rcx,%r10
    1d7b:	48 f7 d6             	not    %rsi
    1d7e:	49 c1 cd 17          	ror    $0x17,%r13
    1d82:	4c 21 de             	and    %r11,%rsi
    1d85:	4c 89 54 24 e8       	mov    %r10,-0x18(%rsp)
    1d8a:	4d 89 da             	mov    %r11,%r10
    1d8d:	4d 89 f3             	mov    %r14,%r11
    1d90:	49 f7 d3             	not    %r11
    1d93:	49 f7 d2             	not    %r10
    1d96:	48 31 c6             	xor    %rax,%rsi
    1d99:	49 21 cb             	and    %rcx,%r11
    1d9c:	48 f7 d1             	not    %rcx
    1d9f:	4d 21 f2             	and    %r14,%r10
    1da2:	48 21 c1             	and    %rax,%rcx
    1da5:	4d 31 c3             	xor    %r8,%r11
    1da8:	49 89 d0             	mov    %rdx,%r8
    1dab:	4d 31 ca             	xor    %r9,%r10
    1dae:	4c 31 f1             	xor    %r14,%rcx
    1db1:	49 c1 c8 09          	ror    $0x9,%r8
    1db5:	49 89 fe             	mov    %rdi,%r14
    1db8:	4c 89 54 24 e0       	mov    %r10,-0x20(%rsp)
    1dbd:	48 89 4c 24 d8       	mov    %rcx,-0x28(%rsp)
    1dc2:	4c 89 c7             	mov    %r8,%rdi
    1dc5:	4c 89 e1             	mov    %r12,%rcx
    1dc8:	4c 8b 64 24 c8       	mov    -0x38(%rsp),%r12
    1dcd:	48 f7 d7             	not    %rdi
    1dd0:	48 c1 c9 02          	ror    $0x2,%rcx
    1dd4:	4c 89 f2             	mov    %r14,%rdx
    1dd7:	49 31 dc             	xor    %rbx,%r12
    1dda:	4c 21 f7             	and    %r14,%rdi
    1ddd:	48 f7 d2             	not    %rdx
    1de0:	48 31 cf             	xor    %rcx,%rdi
    1de3:	4c 89 e3             	mov    %r12,%rbx
    1de6:	4c 21 ea             	and    %r13,%rdx
    1de9:	48 c1 c3 02          	rol    $0x2,%rbx
    1ded:	48 89 7c 24 d0       	mov    %rdi,-0x30(%rsp)
    1df2:	4c 89 ef             	mov    %r13,%rdi
    1df5:	4c 31 c2             	xor    %r8,%rdx
    1df8:	48 f7 d7             	not    %rdi
    1dfb:	48 89 d8             	mov    %rbx,%rax
    1dfe:	48 89 54 24 c8       	mov    %rdx,-0x38(%rsp)
    1e03:	48 21 df             	and    %rbx,%rdi
    1e06:	48 f7 d0             	not    %rax
    1e09:	4c 31 f7             	xor    %r14,%rdi
    1e0c:	48 21 c8             	and    %rcx,%rax
    1e0f:	48 f7 d1             	not    %rcx
    1e12:	48 83 44 24 60 10    	addq   $0x10,0x60(%rsp)
    1e18:	4c 31 e8             	xor    %r13,%rax
    1e1b:	4c 21 c1             	and    %r8,%rcx
    1e1e:	4c 8b 4c 24 60       	mov    0x60(%rsp),%r9
    1e23:	48 89 44 24 c0       	mov    %rax,-0x40(%rsp)
    1e28:	48 31 d9             	xor    %rbx,%rcx
    1e2b:	48 8d 05 2e d3 05 00 	lea    0x5d32e(%rip),%rax        # 5f160 <KeccakF_RoundConstants+0xc0>
    1e32:	49 89 cc             	mov    %rcx,%r12
    1e35:	4c 39 c8             	cmp    %r9,%rax
    1e38:	0f 85 e2 f8 ff ff    	jne    1720 <KeccakF1600_StatePermute+0x110>
    1e3e:	c5 fa 7e 54 24 48    	vmovq  0x48(%rsp),%xmm2
    1e44:	c5 fa 7e 5c 24 58    	vmovq  0x58(%rsp),%xmm3
    1e4a:	c4 e3 e9 22 4c 24 40 	vpinsrq $0x1,0x40(%rsp),%xmm2,%xmm1
    1e51:	01 
    1e52:	c4 e3 e1 22 44 24 50 	vpinsrq $0x1,0x50(%rsp),%xmm3,%xmm0
    1e59:	01 
    1e5a:	c4 c1 f9 6e df       	vmovq  %r15,%xmm3
    1e5f:	48 8b 44 24 90       	mov    -0x70(%rsp),%rax
    1e64:	c5 fa 7e 64 24 28    	vmovq  0x28(%rsp),%xmm4
    1e6a:	c4 e3 7d 38 c1 01    	vinserti128 $0x1,%xmm1,%ymm0,%ymm0
    1e70:	c5 fa 7e 6c 24 38    	vmovq  0x38(%rsp),%xmm5
    1e76:	c4 e3 d9 22 4c 24 20 	vpinsrq $0x1,0x20(%rsp),%xmm4,%xmm1
    1e7d:	01 
    1e7e:	c4 c1 f9 6e e3       	vmovq  %r11,%xmm4
    1e83:	c5 f8 11 00          	vmovups %xmm0,(%rax)
    1e87:	c4 e3 7d 39 40 10 01 	vextracti128 $0x1,%ymm0,0x10(%rax)
    1e8e:	c4 e3 d1 22 44 24 30 	vpinsrq $0x1,0x30(%rsp),%xmm5,%xmm0
    1e95:	01 
    1e96:	c5 fa 7e 74 24 08    	vmovq  0x8(%rsp),%xmm6
    1e9c:	c5 fa 7e 7c 24 18    	vmovq  0x18(%rsp),%xmm7
    1ea2:	c5 fa 7e 54 24 f0    	vmovq  -0x10(%rsp),%xmm2
    1ea8:	c4 e1 f9 6e ee       	vmovq  %rsi,%xmm5
    1ead:	48 89 88 c0 00 00 00 	mov    %rcx,0xc0(%rax)
    1eb4:	c4 e3 7d 38 c1 01    	vinserti128 $0x1,%xmm1,%ymm0,%ymm0
    1eba:	c4 e3 c9 22 0c 24 01 	vpinsrq $0x1,(%rsp),%xmm6,%xmm1
    1ec1:	c4 e1 f9 6e f7       	vmovq  %rdi,%xmm6
    1ec6:	c5 f8 11 40 20       	vmovups %xmm0,0x20(%rax)
    1ecb:	c4 e3 7d 39 40 30 01 	vextracti128 $0x1,%ymm0,0x30(%rax)
    1ed2:	c4 e3 c1 22 44 24 10 	vpinsrq $0x1,0x10(%rsp),%xmm7,%xmm0
    1ed9:	01 
    1eda:	c5 fa 7e 7c 24 d0    	vmovq  -0x30(%rsp),%xmm7
    1ee0:	c4 e3 7d 38 c1 01    	vinserti128 $0x1,%xmm1,%ymm0,%ymm0
    1ee6:	c4 e3 e9 22 4c 24 e8 	vpinsrq $0x1,-0x18(%rsp),%xmm2,%xmm1
    1eed:	01 
    1eee:	c5 f8 11 40 40       	vmovups %xmm0,0x40(%rax)
    1ef3:	c4 e3 7d 39 40 50 01 	vextracti128 $0x1,%ymm0,0x50(%rax)
    1efa:	c4 e3 e1 22 44 24 f8 	vpinsrq $0x1,-0x8(%rsp),%xmm3,%xmm0
    1f01:	01 
    1f02:	c4 e3 7d 38 c1 01    	vinserti128 $0x1,%xmm1,%ymm0,%ymm0
    1f08:	c4 e3 d9 22 4c 24 d8 	vpinsrq $0x1,-0x28(%rsp),%xmm4,%xmm1
    1f0f:	01 
    1f10:	c5 f8 11 40 60       	vmovups %xmm0,0x60(%rax)
    1f15:	c4 e3 7d 39 40 70 01 	vextracti128 $0x1,%ymm0,0x70(%rax)
    1f1c:	c4 c3 d1 22 c2 01    	vpinsrq $0x1,%r10,%xmm5,%xmm0
    1f22:	c4 e3 7d 38 c1 01    	vinserti128 $0x1,%xmm1,%ymm0,%ymm0
    1f28:	c4 e3 c9 22 4c 24 c0 	vpinsrq $0x1,-0x40(%rsp),%xmm6,%xmm1
    1f2f:	01 
    1f30:	c5 f8 11 80 80 00 00 	vmovups %xmm0,0x80(%rax)
    1f37:	00 
    1f38:	c4 e3 7d 39 80 90 00 	vextracti128 $0x1,%ymm0,0x90(%rax)
    1f3f:	00 00 01 
    1f42:	c4 e3 c1 22 c2 01    	vpinsrq $0x1,%rdx,%xmm7,%xmm0
    1f48:	c4 e3 7d 38 c1 01    	vinserti128 $0x1,%xmm1,%ymm0,%ymm0
    1f4e:	c5 f8 11 80 a0 00 00 	vmovups %xmm0,0xa0(%rax)
    1f55:	00 
    1f56:	c4 e3 7d 39 80 b0 00 	vextracti128 $0x1,%ymm0,0xb0(%rax)
    1f5d:	00 00 01 
    1f60:	c5 f8 77             	vzeroupper 
    1f63:	48 8d 65 d8          	lea    -0x28(%rbp),%rsp
    1f67:	5b                   	pop    %rbx
    1f68:	41 5c                	pop    %r12
    1f6a:	41 5d                	pop    %r13
    1f6c:	41 5e                	pop    %r14
    1f6e:	41 5f                	pop    %r15
    1f70:	5d                   	pop    %rbp
    1f71:	c3                   	retq   
    1f72:	66 66 2e 0f 1f 84 00 	data16 nopw %cs:0x0(%rax,%rax,1)
    1f79:	00 00 00 00 
    1f7d:	0f 1f 00             	nopl   (%rax)

0000000000001f80 <keccak_absorb.constprop.0>:
    1f80:	41 56                	push   %r14
    1f82:	49 89 d6             	mov    %rdx,%r14
    1f85:	41 55                	push   %r13
    1f87:	41 89 cd             	mov    %ecx,%r13d
    1f8a:	41 54                	push   %r12
    1f8c:	55                   	push   %rbp
    1f8d:	48 89 fd             	mov    %rdi,%rbp
    1f90:	53                   	push   %rbx
    1f91:	48 81 ec 60 01 00 00 	sub    $0x160,%rsp
    1f98:	c5 79 6f 25 c0 d1 05 	vmovdqa 0x5d1c0(%rip),%xmm12        # 5f160 <KeccakF_RoundConstants+0xc0>
    1f9f:	00 
    1fa0:	64 48 8b 04 25 28 00 	mov    %fs:0x28,%rax
    1fa7:	00 00 
    1fa9:	48 89 84 24 58 01 00 	mov    %rax,0x158(%rsp)
    1fb0:	00 
    1fb1:	31 c0                	xor    %eax,%eax
    1fb3:	48 81 fa a7 00 00 00 	cmp    $0xa7,%rdx
    1fba:	0f 86 26 09 00 00    	jbe    28e6 <keccak_absorb.constprop.0+0x966>
    1fc0:	c5 79 6f 25 98 d1 05 	vmovdqa 0x5d198(%rip),%xmm12        # 5f160 <KeccakF_RoundConstants+0xc0>
    1fc7:	00 
    1fc8:	48 8d 9e a8 00 00 00 	lea    0xa8(%rsi),%rbx
    1fcf:	4c 8d 67 7f          	lea    0x7f(%rdi),%r12
    1fd3:	e9 83 08 00 00       	jmpq   285b <keccak_absorb.constprop.0+0x8db>
    1fd8:	0f 1f 84 00 00 00 00 	nopl   0x0(%rax,%rax,1)
    1fdf:	00 
    1fe0:	c5 fa 6f 9b 58 ff ff 	vmovdqu -0xa8(%rbx),%xmm3
    1fe7:	ff 
    1fe8:	c5 99 db 83 68 ff ff 	vpand  -0x98(%rbx),%xmm12,%xmm0
    1fef:	ff 
    1ff0:	c5 19 db 8b 58 ff ff 	vpand  -0xa8(%rbx),%xmm12,%xmm9
    1ff7:	ff 
    1ff8:	c5 fa 6f 63 88       	vmovdqu -0x78(%rbx),%xmm4
    1ffd:	c5 c1 71 d3 08       	vpsrlw $0x8,%xmm3,%xmm7
    2002:	c5 19 db 43 98       	vpand  -0x68(%rbx),%xmm12,%xmm8
    2007:	c5 fa 6f 4b 98       	vmovdqu -0x68(%rbx),%xmm1
    200c:	c5 fa 6f 9b 68 ff ff 	vmovdqu -0x98(%rbx),%xmm3
    2013:	ff 
    2014:	c5 31 67 c8          	vpackuswb %xmm0,%xmm9,%xmm9
    2018:	c5 fa 6f 6b b8       	vmovdqu -0x48(%rbx),%xmm5
    201d:	c5 99 db b3 78 ff ff 	vpand  -0x88(%rbx),%xmm12,%xmm6
    2024:	ff 
    2025:	c5 f1 71 d1 08       	vpsrlw $0x8,%xmm1,%xmm1
    202a:	c5 f9 71 d3 08       	vpsrlw $0x8,%xmm3,%xmm0
    202f:	c5 fa 6f 9b 78 ff ff 	vmovdqu -0x88(%rbx),%xmm3
    2036:	ff 
    2037:	c5 e9 71 d5 08       	vpsrlw $0x8,%xmm5,%xmm2
    203c:	c5 fa 6f 6b c8       	vmovdqu -0x38(%rbx),%xmm5
    2041:	c5 c1 67 f8          	vpackuswb %xmm0,%xmm7,%xmm7
    2045:	c5 99 db 43 88       	vpand  -0x78(%rbx),%xmm12,%xmm0
    204a:	c5 e1 71 d3 08       	vpsrlw $0x8,%xmm3,%xmm3
    204f:	c5 c9 67 f0          	vpackuswb %xmm0,%xmm6,%xmm6
    2053:	c5 f9 71 d4 08       	vpsrlw $0x8,%xmm4,%xmm0
    2058:	c5 fa 6f 63 a8       	vmovdqu -0x58(%rbx),%xmm4
    205d:	c5 e1 67 d8          	vpackuswb %xmm0,%xmm3,%xmm3
    2061:	c5 99 db 43 a8       	vpand  -0x58(%rbx),%xmm12,%xmm0
    2066:	c5 39 67 c0          	vpackuswb %xmm0,%xmm8,%xmm8
    206a:	c5 f9 71 d4 08       	vpsrlw $0x8,%xmm4,%xmm0
    206f:	c5 99 db 63 b8       	vpand  -0x48(%rbx),%xmm12,%xmm4
    2074:	c5 f1 67 c8          	vpackuswb %xmm0,%xmm1,%xmm1
    2078:	c5 99 db 43 c8       	vpand  -0x38(%rbx),%xmm12,%xmm0
    207d:	c4 41 19 db e8       	vpand  %xmm8,%xmm12,%xmm13
    2082:	c4 c1 39 71 d0 08    	vpsrlw $0x8,%xmm8,%xmm8
    2088:	c5 d9 67 e0          	vpackuswb %xmm0,%xmm4,%xmm4
    208c:	c5 f9 71 d5 08       	vpsrlw $0x8,%xmm5,%xmm0
    2091:	c4 c1 19 db e9       	vpand  %xmm9,%xmm12,%xmm5
    2096:	c5 e9 67 c0          	vpackuswb %xmm0,%xmm2,%xmm0
    209a:	c4 c1 31 71 d1 08    	vpsrlw $0x8,%xmm9,%xmm9
    20a0:	c5 99 db d6          	vpand  %xmm6,%xmm12,%xmm2
    20a4:	c5 d1 67 ea          	vpackuswb %xmm2,%xmm5,%xmm5
    20a8:	c5 c9 71 d6 08       	vpsrlw $0x8,%xmm6,%xmm6
    20ad:	c5 99 db d4          	vpand  %xmm4,%xmm12,%xmm2
    20b1:	c5 d9 71 d4 08       	vpsrlw $0x8,%xmm4,%xmm4
    20b6:	c5 11 67 ea          	vpackuswb %xmm2,%xmm13,%xmm13
    20ba:	c5 99 db d3          	vpand  %xmm3,%xmm12,%xmm2
    20be:	c5 39 67 c4          	vpackuswb %xmm4,%xmm8,%xmm8
    20c2:	c5 e1 71 d3 08       	vpsrlw $0x8,%xmm3,%xmm3
    20c7:	c5 99 db e7          	vpand  %xmm7,%xmm12,%xmm4
    20cb:	c5 c1 71 d7 08       	vpsrlw $0x8,%xmm7,%xmm7
    20d0:	c5 d9 67 e2          	vpackuswb %xmm2,%xmm4,%xmm4
    20d4:	c5 99 db d0          	vpand  %xmm0,%xmm12,%xmm2
    20d8:	c5 41 67 d3          	vpackuswb %xmm3,%xmm7,%xmm10
    20dc:	c5 99 db d9          	vpand  %xmm1,%xmm12,%xmm3
    20e0:	c5 19 db dd          	vpand  %xmm5,%xmm12,%xmm11
    20e4:	c5 e1 67 da          	vpackuswb %xmm2,%xmm3,%xmm3
    20e8:	c5 f9 71 d0 08       	vpsrlw $0x8,%xmm0,%xmm0
    20ed:	c5 b1 67 f6          	vpackuswb %xmm6,%xmm9,%xmm6
    20f1:	c5 e9 71 d1 08       	vpsrlw $0x8,%xmm1,%xmm2
    20f6:	c5 99 db fc          	vpand  %xmm4,%xmm12,%xmm7
    20fa:	c5 99 db ce          	vpand  %xmm6,%xmm12,%xmm1
    20fe:	c5 d9 71 d4 08       	vpsrlw $0x8,%xmm4,%xmm4
    2103:	c5 c9 71 d6 08       	vpsrlw $0x8,%xmm6,%xmm6
    2108:	c5 e9 67 d0          	vpackuswb %xmm0,%xmm2,%xmm2
    210c:	c5 b1 71 d2 08       	vpsrlw $0x8,%xmm2,%xmm9
    2111:	c5 d1 71 d5 08       	vpsrlw $0x8,%xmm5,%xmm5
    2116:	c4 c1 19 db c5       	vpand  %xmm13,%xmm12,%xmm0
    211b:	c5 21 67 d8          	vpackuswb %xmm0,%xmm11,%xmm11
    211f:	c4 c1 11 71 d5 08    	vpsrlw $0x8,%xmm13,%xmm13
    2125:	c5 99 db c3          	vpand  %xmm3,%xmm12,%xmm0
    2129:	c5 c1 67 f8          	vpackuswb %xmm0,%xmm7,%xmm7
    212d:	c5 e1 71 d3 08       	vpsrlw $0x8,%xmm3,%xmm3
    2132:	c4 c1 19 db c0       	vpand  %xmm8,%xmm12,%xmm0
    2137:	c5 d9 67 e3          	vpackuswb %xmm3,%xmm4,%xmm4
    213b:	c5 f1 67 c8          	vpackuswb %xmm0,%xmm1,%xmm1
    213f:	c4 c1 19 db da       	vpand  %xmm10,%xmm12,%xmm3
    2144:	c4 c1 39 71 d0 08    	vpsrlw $0x8,%xmm8,%xmm8
    214a:	c4 c1 29 71 d2 08    	vpsrlw $0x8,%xmm10,%xmm10
    2150:	c5 99 db c2          	vpand  %xmm2,%xmm12,%xmm0
    2154:	c4 c1 49 67 f0       	vpackuswb %xmm8,%xmm6,%xmm6
    2159:	c4 41 29 67 c9       	vpackuswb %xmm9,%xmm10,%xmm9
    215e:	c4 62 79 30 c1       	vpmovzxbw %xmm1,%xmm8
    2163:	c4 42 79 30 d3       	vpmovzxbw %xmm11,%xmm10
    2168:	c4 c1 69 73 db 08    	vpsrldq $0x8,%xmm11,%xmm2
    216e:	c4 62 79 30 df       	vpmovzxbw %xmm7,%xmm11
    2173:	c5 e1 67 c0          	vpackuswb %xmm0,%xmm3,%xmm0
    2177:	c4 c1 21 71 f3 08    	vpsllw $0x8,%xmm11,%xmm11
    217d:	c4 42 79 33 f0       	vpmovzxwd %xmm8,%xmm14
    2182:	c4 c1 51 67 ed       	vpackuswb %xmm13,%xmm5,%xmm5
    2187:	c4 e2 79 30 d8       	vpmovzxbw %xmm0,%xmm3
    218c:	c4 42 79 33 eb       	vpmovzxwd %xmm11,%xmm13
    2191:	c4 c1 09 72 f6 10    	vpslld $0x10,%xmm14,%xmm14
    2197:	c4 c1 39 73 d8 08    	vpsrldq $0x8,%xmm8,%xmm8
    219d:	c4 42 79 33 fa       	vpmovzxwd %xmm10,%xmm15
    21a2:	c4 41 09 eb f5       	vpor   %xmm13,%xmm14,%xmm14
    21a7:	c4 62 79 33 eb       	vpmovzxwd %xmm3,%xmm13
    21ac:	c4 42 79 33 c0       	vpmovzxwd %xmm8,%xmm8
    21b1:	c5 e1 73 db 08       	vpsrldq $0x8,%xmm3,%xmm3
    21b6:	c4 c1 21 73 db 08    	vpsrldq $0x8,%xmm11,%xmm11
    21bc:	c4 e2 79 30 d2       	vpmovzxbw %xmm2,%xmm2
    21c1:	c4 e2 79 33 db       	vpmovzxwd %xmm3,%xmm3
    21c6:	c4 c1 29 73 da 08    	vpsrldq $0x8,%xmm10,%xmm10
    21cc:	c4 42 79 33 db       	vpmovzxwd %xmm11,%xmm11
    21d1:	c5 c1 73 df 08       	vpsrldq $0x8,%xmm7,%xmm7
    21d6:	c5 f1 73 d9 08       	vpsrldq $0x8,%xmm1,%xmm1
    21db:	c4 42 79 33 d2       	vpmovzxwd %xmm10,%xmm10
    21e0:	c4 c1 39 72 f0 10    	vpslld $0x10,%xmm8,%xmm8
    21e6:	c5 e1 72 f3 18       	vpslld $0x18,%xmm3,%xmm3
    21eb:	c4 e2 79 30 c9       	vpmovzxbw %xmm1,%xmm1
    21f0:	c4 41 39 eb c3       	vpor   %xmm11,%xmm8,%xmm8
    21f5:	c4 c1 61 eb da       	vpor   %xmm10,%xmm3,%xmm3
    21fa:	c4 e2 79 30 ff       	vpmovzxbw %xmm7,%xmm7
    21ff:	c5 b9 eb db          	vpor   %xmm3,%xmm8,%xmm3
    2203:	c5 c1 71 f7 08       	vpsllw $0x8,%xmm7,%xmm7
    2208:	c4 62 79 33 c1       	vpmovzxwd %xmm1,%xmm8
    220d:	c5 f9 73 d8 08       	vpsrldq $0x8,%xmm0,%xmm0
    2212:	c4 c1 39 72 f0 10    	vpslld $0x10,%xmm8,%xmm8
    2218:	c4 62 79 33 d7       	vpmovzxwd %xmm7,%xmm10
    221d:	c4 e2 79 30 c0       	vpmovzxbw %xmm0,%xmm0
    2222:	c4 41 39 eb d2       	vpor   %xmm10,%xmm8,%xmm10
    2227:	c4 62 79 33 da       	vpmovzxwd %xmm2,%xmm11
    222c:	c5 f1 73 d9 08       	vpsrldq $0x8,%xmm1,%xmm1
    2231:	c5 c1 73 df 08       	vpsrldq $0x8,%xmm7,%xmm7
    2236:	c4 62 79 33 c0       	vpmovzxwd %xmm0,%xmm8
    223b:	c5 f9 73 d8 08       	vpsrldq $0x8,%xmm0,%xmm0
    2240:	c4 e2 79 33 c9       	vpmovzxwd %xmm1,%xmm1
    2245:	c4 e2 79 33 ff       	vpmovzxwd %xmm7,%xmm7
    224a:	c5 e9 73 da 08       	vpsrldq $0x8,%xmm2,%xmm2
    224f:	c5 f1 72 f1 10       	vpslld $0x10,%xmm1,%xmm1
    2254:	c4 e2 79 33 c0       	vpmovzxwd %xmm0,%xmm0
    2259:	c4 e2 79 33 d2       	vpmovzxwd %xmm2,%xmm2
    225e:	c5 f9 72 f0 18       	vpslld $0x18,%xmm0,%xmm0
    2263:	c5 f1 eb cf          	vpor   %xmm7,%xmm1,%xmm1
    2267:	c4 c1 11 72 f5 18    	vpslld $0x18,%xmm13,%xmm13
    226d:	c4 c1 39 72 f0 18    	vpslld $0x18,%xmm8,%xmm8
    2273:	c5 f9 eb c2          	vpor   %xmm2,%xmm0,%xmm0
    2277:	c5 f1 eb f8          	vpor   %xmm0,%xmm1,%xmm7
    227b:	c5 f1 73 dd 08       	vpsrldq $0x8,%xmm5,%xmm1
    2280:	c4 41 11 eb ef       	vpor   %xmm15,%xmm13,%xmm13
    2285:	c4 e2 79 30 c9       	vpmovzxbw %xmm1,%xmm1
    228a:	c5 f8 29 7c 24 30    	vmovaps %xmm7,0x30(%rsp)
    2290:	c4 41 09 eb ed       	vpor   %xmm13,%xmm14,%xmm13
    2295:	c4 41 39 eb c3       	vpor   %xmm11,%xmm8,%xmm8
    229a:	c4 e2 79 33 d1       	vpmovzxwd %xmm1,%xmm2
    229f:	c4 e2 79 30 fd       	vpmovzxbw %xmm5,%xmm7
    22a4:	c4 e2 79 30 ec       	vpmovzxbw %xmm4,%xmm5
    22a9:	c5 f8 29 54 24 50    	vmovaps %xmm2,0x50(%rsp)
    22af:	c4 e2 79 30 d6       	vpmovzxbw %xmm6,%xmm2
    22b4:	c5 c9 73 de 08       	vpsrldq $0x8,%xmm6,%xmm6
    22b9:	c4 41 29 eb c0       	vpor   %xmm8,%xmm10,%xmm8
    22be:	c5 f9 73 dc 08       	vpsrldq $0x8,%xmm4,%xmm0
    22c3:	c4 e2 79 30 f6       	vpmovzxbw %xmm6,%xmm6
    22c8:	c4 e2 79 33 e5       	vpmovzxwd %xmm5,%xmm4
    22cd:	c5 f8 29 24 24       	vmovaps %xmm4,(%rsp)
    22d2:	c4 e2 79 33 e6       	vpmovzxwd %xmm6,%xmm4
    22d7:	c5 c9 73 de 08       	vpsrldq $0x8,%xmm6,%xmm6
    22dc:	c4 62 79 33 ff       	vpmovzxwd %xmm7,%xmm15
    22e1:	c4 62 79 33 f6       	vpmovzxwd %xmm6,%xmm14
    22e6:	c4 c2 79 30 f1       	vpmovzxbw %xmm9,%xmm6
    22eb:	c5 78 29 7c 24 40    	vmovaps %xmm15,0x40(%rsp)
    22f1:	c4 62 79 33 da       	vpmovzxwd %xmm2,%xmm11
    22f6:	c5 78 29 74 24 60    	vmovaps %xmm14,0x60(%rsp)
    22fc:	c4 62 79 33 f6       	vpmovzxwd %xmm6,%xmm14
    2301:	c4 c1 31 73 d9 08    	vpsrldq $0x8,%xmm9,%xmm9
    2307:	c4 e2 79 30 c0       	vpmovzxbw %xmm0,%xmm0
    230c:	c5 78 29 74 24 20    	vmovaps %xmm14,0x20(%rsp)
    2312:	c4 c1 09 73 df 08    	vpsrldq $0x8,%xmm15,%xmm14
    2318:	c4 42 79 30 c9       	vpmovzxbw %xmm9,%xmm9
    231d:	c4 62 79 33 d0       	vpmovzxwd %xmm0,%xmm10
    2322:	c4 42 79 35 f6       	vpmovzxdq %xmm14,%xmm14
    2327:	c5 78 29 5c 24 10    	vmovaps %xmm11,0x10(%rsp)
    232d:	c4 42 79 33 d9       	vpmovzxwd %xmm9,%xmm11
    2332:	c4 c1 01 73 f6 20    	vpsllq $0x20,%xmm14,%xmm15
    2338:	c5 79 6f 34 24       	vmovdqa (%rsp),%xmm14
    233d:	c4 c1 31 73 d9 08    	vpsrldq $0x8,%xmm9,%xmm9
    2343:	c5 c1 73 df 08       	vpsrldq $0x8,%xmm7,%xmm7
    2348:	c5 d1 73 dd 08       	vpsrldq $0x8,%xmm5,%xmm5
    234d:	c4 42 79 33 c9       	vpmovzxwd %xmm9,%xmm9
    2352:	c4 c1 09 73 de 08    	vpsrldq $0x8,%xmm14,%xmm14
    2358:	c5 78 29 4c 24 70    	vmovaps %xmm9,0x70(%rsp)
    235e:	c4 e2 79 33 ff       	vpmovzxwd %xmm7,%xmm7
    2363:	c4 e2 79 33 ed       	vpmovzxwd %xmm5,%xmm5
    2368:	c5 e9 73 da 08       	vpsrldq $0x8,%xmm2,%xmm2
    236d:	c5 c9 73 de 08       	vpsrldq $0x8,%xmm6,%xmm6
    2372:	c4 42 79 35 f6       	vpmovzxdq %xmm14,%xmm14
    2377:	c4 c1 31 73 f6 28    	vpsllq $0x28,%xmm14,%xmm9
    237d:	c4 e2 79 33 f6       	vpmovzxwd %xmm6,%xmm6
    2382:	c4 e2 79 33 d2       	vpmovzxwd %xmm2,%xmm2
    2387:	c5 f1 73 d9 08       	vpsrldq $0x8,%xmm1,%xmm1
    238c:	c5 f9 73 d8 08       	vpsrldq $0x8,%xmm0,%xmm0
    2391:	c4 41 01 eb f1       	vpor   %xmm9,%xmm15,%xmm14
    2396:	c5 79 6f 7c 24 10    	vmovdqa 0x10(%rsp),%xmm15
    239c:	c4 e2 79 33 c9       	vpmovzxwd %xmm1,%xmm1
    23a1:	c4 e2 79 33 c0       	vpmovzxwd %xmm0,%xmm0
    23a6:	c4 c1 31 73 df 08    	vpsrldq $0x8,%xmm15,%xmm9
    23ac:	c5 79 6f 7c 24 20    	vmovdqa 0x20(%rsp),%xmm15
    23b2:	c4 42 79 35 c9       	vpmovzxdq %xmm9,%xmm9
    23b7:	c4 c1 01 73 df 08    	vpsrldq $0x8,%xmm15,%xmm15
    23bd:	c4 c1 31 73 f1 30    	vpsllq $0x30,%xmm9,%xmm9
    23c3:	c4 42 79 35 ff       	vpmovzxdq %xmm15,%xmm15
    23c8:	c4 c1 01 73 f7 38    	vpsllq $0x38,%xmm15,%xmm15
    23ce:	c4 41 31 eb cf       	vpor   %xmm15,%xmm9,%xmm9
    23d3:	c4 41 09 eb f1       	vpor   %xmm9,%xmm14,%xmm14
    23d8:	c4 c1 31 73 dd 08    	vpsrldq $0x8,%xmm13,%xmm9
    23de:	c4 42 79 35 c9       	vpmovzxdq %xmm9,%xmm9
    23e3:	c4 41 09 eb f1       	vpor   %xmm9,%xmm14,%xmm14
    23e8:	c5 09 ef 75 10       	vpxor  0x10(%rbp),%xmm14,%xmm14
    23ed:	c5 78 29 b4 24 80 00 	vmovaps %xmm14,0x80(%rsp)
    23f4:	00 00 
    23f6:	c4 62 79 35 f7       	vpmovzxdq %xmm7,%xmm14
    23fb:	c5 c1 73 df 08       	vpsrldq $0x8,%xmm7,%xmm7
    2400:	c4 c1 01 73 f6 20    	vpsllq $0x20,%xmm14,%xmm15
    2406:	c4 62 79 35 f5       	vpmovzxdq %xmm5,%xmm14
    240b:	c4 e2 79 35 ff       	vpmovzxdq %xmm7,%xmm7
    2410:	c5 d1 73 dd 08       	vpsrldq $0x8,%xmm5,%xmm5
    2415:	c4 c1 31 73 f6 28    	vpsllq $0x28,%xmm14,%xmm9
    241b:	c4 e2 79 35 ed       	vpmovzxdq %xmm5,%xmm5
    2420:	c5 c1 73 f7 20       	vpsllq $0x20,%xmm7,%xmm7
    2425:	c4 41 01 eb f1       	vpor   %xmm9,%xmm15,%xmm14
    242a:	c5 d1 73 f5 28       	vpsllq $0x28,%xmm5,%xmm5
    242f:	c4 62 79 35 ca       	vpmovzxdq %xmm2,%xmm9
    2434:	c4 62 79 35 fe       	vpmovzxdq %xmm6,%xmm15
    2439:	c4 c1 01 73 f7 38    	vpsllq $0x38,%xmm15,%xmm15
    243f:	c4 c1 31 73 f1 30    	vpsllq $0x30,%xmm9,%xmm9
    2445:	c5 c1 eb fd          	vpor   %xmm5,%xmm7,%xmm7
    2449:	c5 e9 73 da 08       	vpsrldq $0x8,%xmm2,%xmm2
    244e:	c5 d1 73 de 08       	vpsrldq $0x8,%xmm6,%xmm5
    2453:	c4 41 31 eb cf       	vpor   %xmm15,%xmm9,%xmm9
    2458:	c4 e2 79 35 d2       	vpmovzxdq %xmm2,%xmm2
    245d:	c4 e2 79 35 ed       	vpmovzxdq %xmm5,%xmm5
    2462:	c4 41 09 eb f1       	vpor   %xmm9,%xmm14,%xmm14
    2467:	c5 d1 73 f5 38       	vpsllq $0x38,%xmm5,%xmm5
    246c:	c5 e9 73 f2 30       	vpsllq $0x30,%xmm2,%xmm2
    2471:	c4 62 79 35 cb       	vpmovzxdq %xmm3,%xmm9
    2476:	c4 41 09 eb f1       	vpor   %xmm9,%xmm14,%xmm14
    247b:	c5 e9 eb d5          	vpor   %xmm5,%xmm2,%xmm2
    247f:	c5 79 6f 4c 24 50    	vmovdqa 0x50(%rsp),%xmm9
    2485:	c5 09 ef 75 20       	vpxor  0x20(%rbp),%xmm14,%xmm14
    248a:	c5 e1 73 db 08       	vpsrldq $0x8,%xmm3,%xmm3
    248f:	c5 c1 eb ea          	vpor   %xmm2,%xmm7,%xmm5
    2493:	c4 e2 79 35 db       	vpmovzxdq %xmm3,%xmm3
    2498:	c5 d1 eb db          	vpor   %xmm3,%xmm5,%xmm3
    249c:	c4 c2 79 35 e9       	vpmovzxdq %xmm9,%xmm5
    24a1:	c5 e1 ef 5d 30       	vpxor  0x30(%rbp),%xmm3,%xmm3
    24a6:	c5 c9 73 f5 20       	vpsllq $0x20,%xmm5,%xmm6
    24ab:	c4 c2 79 35 ea       	vpmovzxdq %xmm10,%xmm5
    24b0:	c5 e9 73 f5 28       	vpsllq $0x28,%xmm5,%xmm2
    24b5:	c5 c9 eb ea          	vpor   %xmm2,%xmm6,%xmm5
    24b9:	c4 e2 79 35 d4       	vpmovzxdq %xmm4,%xmm2
    24be:	c4 c2 79 35 f3       	vpmovzxdq %xmm11,%xmm6
    24c3:	c5 c9 73 f6 38       	vpsllq $0x38,%xmm6,%xmm6
    24c8:	c5 e9 73 f2 30       	vpsllq $0x30,%xmm2,%xmm2
    24cd:	c5 e9 eb d6          	vpor   %xmm6,%xmm2,%xmm2
    24d1:	c4 c1 49 73 da 08    	vpsrldq $0x8,%xmm10,%xmm6
    24d7:	c5 d1 eb ea          	vpor   %xmm2,%xmm5,%xmm5
    24db:	c4 c2 79 35 d0       	vpmovzxdq %xmm8,%xmm2
    24e0:	c4 e2 79 35 f6       	vpmovzxdq %xmm6,%xmm6
    24e5:	c5 c9 73 f6 28       	vpsllq $0x28,%xmm6,%xmm6
    24ea:	c5 d9 73 dc 08       	vpsrldq $0x8,%xmm4,%xmm4
    24ef:	c5 d1 eb ea          	vpor   %xmm2,%xmm5,%xmm5
    24f3:	c5 d1 ef 55 40       	vpxor  0x40(%rbp),%xmm5,%xmm2
    24f8:	c4 c1 51 73 d9 08    	vpsrldq $0x8,%xmm9,%xmm5
    24fe:	c4 e2 79 35 e4       	vpmovzxdq %xmm4,%xmm4
    2503:	c5 79 6f 54 24 60    	vmovdqa 0x60(%rsp),%xmm10
    2509:	c4 e2 79 35 ed       	vpmovzxdq %xmm5,%xmm5
    250e:	c5 d9 73 f4 30       	vpsllq $0x30,%xmm4,%xmm4
    2513:	c5 78 11 75 20       	vmovups %xmm14,0x20(%rbp)
    2518:	c5 79 6f 7c 24 40    	vmovdqa 0x40(%rsp),%xmm15
    251e:	c5 d1 73 f5 20       	vpsllq $0x20,%xmm5,%xmm5
    2523:	c4 c1 39 73 d8 08    	vpsrldq $0x8,%xmm8,%xmm8
    2529:	c5 f8 11 5d 30       	vmovups %xmm3,0x30(%rbp)
    252e:	c5 d1 eb ee          	vpor   %xmm6,%xmm5,%xmm5
    2532:	c4 c1 49 73 db 08    	vpsrldq $0x8,%xmm11,%xmm6
    2538:	c5 79 6f 5c 24 10    	vmovdqa 0x10(%rsp),%xmm11
    253e:	c5 f8 11 55 40       	vmovups %xmm2,0x40(%rbp)
    2543:	c4 e2 79 35 f6       	vpmovzxdq %xmm6,%xmm6
    2548:	c5 c9 73 f6 38       	vpsllq $0x38,%xmm6,%xmm6
    254d:	c5 d9 eb e6          	vpor   %xmm6,%xmm4,%xmm4
    2551:	c4 e2 79 35 f1       	vpmovzxdq %xmm1,%xmm6
    2556:	c5 c1 73 f6 20       	vpsllq $0x20,%xmm6,%xmm7
    255b:	c5 d1 eb ec          	vpor   %xmm4,%xmm5,%xmm5
    255f:	c4 e2 79 35 f0       	vpmovzxdq %xmm0,%xmm6
    2564:	c5 f1 73 d9 08       	vpsrldq $0x8,%xmm1,%xmm1
    2569:	c5 f9 73 d8 08       	vpsrldq $0x8,%xmm0,%xmm0
    256e:	c4 c2 79 35 e0       	vpmovzxdq %xmm8,%xmm4
    2573:	c5 79 6f 44 24 70    	vmovdqa 0x70(%rsp),%xmm8
    2579:	c5 d1 eb ec          	vpor   %xmm4,%xmm5,%xmm5
    257d:	c5 d9 73 f6 28       	vpsllq $0x28,%xmm6,%xmm4
    2582:	c4 e2 79 35 c9       	vpmovzxdq %xmm1,%xmm1
    2587:	c5 c1 eb f4          	vpor   %xmm4,%xmm7,%xmm6
    258b:	c4 c2 79 35 e2       	vpmovzxdq %xmm10,%xmm4
    2590:	c4 c2 79 35 f8       	vpmovzxdq %xmm8,%xmm7
    2595:	c5 c1 73 f7 38       	vpsllq $0x38,%xmm7,%xmm7
    259a:	c5 d9 73 f4 30       	vpsllq $0x30,%xmm4,%xmm4
    259f:	c4 e2 79 35 c0       	vpmovzxdq %xmm0,%xmm0
    25a4:	c5 d9 eb e7          	vpor   %xmm7,%xmm4,%xmm4
    25a8:	c5 f9 6f 7c 24 30    	vmovdqa 0x30(%rsp),%xmm7
    25ae:	c5 f9 73 f0 28       	vpsllq $0x28,%xmm0,%xmm0
    25b3:	c5 d1 ef 6d 50       	vpxor  0x50(%rbp),%xmm5,%xmm5
    25b8:	c5 c9 eb f4          	vpor   %xmm4,%xmm6,%xmm6
    25bc:	c5 f1 73 f1 20       	vpsllq $0x20,%xmm1,%xmm1
    25c1:	c4 e2 79 35 e7       	vpmovzxdq %xmm7,%xmm4
    25c6:	c5 f1 eb c8          	vpor   %xmm0,%xmm1,%xmm1
    25ca:	c5 f8 11 6d 50       	vmovups %xmm5,0x50(%rbp)
    25cf:	c5 c9 eb f4          	vpor   %xmm4,%xmm6,%xmm6
    25d3:	c4 c1 79 73 da 08    	vpsrldq $0x8,%xmm10,%xmm0
    25d9:	c5 c9 ef 65 60       	vpxor  0x60(%rbp),%xmm6,%xmm4
    25de:	c4 c1 49 73 d8 08    	vpsrldq $0x8,%xmm8,%xmm6
    25e4:	c4 e2 79 35 c0       	vpmovzxdq %xmm0,%xmm0
    25e9:	c4 e2 79 35 f6       	vpmovzxdq %xmm6,%xmm6
    25ee:	c5 f9 73 f0 30       	vpsllq $0x30,%xmm0,%xmm0
    25f3:	c5 f8 11 65 60       	vmovups %xmm4,0x60(%rbp)
    25f8:	c5 c9 73 f6 38       	vpsllq $0x38,%xmm6,%xmm6
    25fd:	c5 f9 eb c6          	vpor   %xmm6,%xmm0,%xmm0
    2601:	c5 c9 73 df 08       	vpsrldq $0x8,%xmm7,%xmm6
    2606:	c5 f1 eb c8          	vpor   %xmm0,%xmm1,%xmm1
    260a:	c4 e2 79 35 f6       	vpmovzxdq %xmm6,%xmm6
    260f:	c5 f1 eb ce          	vpor   %xmm6,%xmm1,%xmm1
    2613:	c4 c2 79 35 f7       	vpmovzxdq %xmm15,%xmm6
    2618:	c5 f1 ef 4d 70       	vpxor  0x70(%rbp),%xmm1,%xmm1
    261d:	c5 c1 73 f6 20       	vpsllq $0x20,%xmm6,%xmm7
    2622:	c5 f9 6f 34 24       	vmovdqa (%rsp),%xmm6
    2627:	c5 f8 11 4d 70       	vmovups %xmm1,0x70(%rbp)
    262c:	c4 e2 79 35 f6       	vpmovzxdq %xmm6,%xmm6
    2631:	c5 f9 73 f6 28       	vpsllq $0x28,%xmm6,%xmm0
    2636:	c5 c1 eb f0          	vpor   %xmm0,%xmm7,%xmm6
    263a:	c5 f9 6f 7c 24 20    	vmovdqa 0x20(%rsp),%xmm7
    2640:	c4 c2 79 35 c3       	vpmovzxdq %xmm11,%xmm0
    2645:	c5 f9 73 f0 30       	vpsllq $0x30,%xmm0,%xmm0
    264a:	c4 e2 79 35 ff       	vpmovzxdq %xmm7,%xmm7
    264f:	c5 c1 73 f7 38       	vpsllq $0x38,%xmm7,%xmm7
    2654:	c5 f9 eb c7          	vpor   %xmm7,%xmm0,%xmm0
    2658:	c5 f9 6f bc 24 80 00 	vmovdqa 0x80(%rsp),%xmm7
    265f:	00 00 
    2661:	c5 c9 eb c0          	vpor   %xmm0,%xmm6,%xmm0
    2665:	c4 c2 79 35 f5       	vpmovzxdq %xmm13,%xmm6
    266a:	c5 f9 eb c6          	vpor   %xmm6,%xmm0,%xmm0
    266e:	c5 f9 ef 45 00       	vpxor  0x0(%rbp),%xmm0,%xmm0
    2673:	c5 f8 11 7d 10       	vmovups %xmm7,0x10(%rbp)
    2678:	c5 f8 11 45 00       	vmovups %xmm0,0x0(%rbp)
    267d:	0f b6 43 d9          	movzbl -0x27(%rbx),%eax
    2681:	0f b6 53 da          	movzbl -0x26(%rbx),%edx
    2685:	48 c1 e0 08          	shl    $0x8,%rax
    2689:	48 c1 e2 10          	shl    $0x10,%rdx
    268d:	48 09 d0             	or     %rdx,%rax
    2690:	0f b6 53 d8          	movzbl -0x28(%rbx),%edx
    2694:	48 09 d0             	or     %rdx,%rax
    2697:	0f b6 53 db          	movzbl -0x25(%rbx),%edx
    269b:	48 c1 e2 18          	shl    $0x18,%rdx
    269f:	48 09 d0             	or     %rdx,%rax
    26a2:	0f b6 53 dc          	movzbl -0x24(%rbx),%edx
    26a6:	48 c1 e2 20          	shl    $0x20,%rdx
    26aa:	48 09 d0             	or     %rdx,%rax
    26ad:	0f b6 53 dd          	movzbl -0x23(%rbx),%edx
    26b1:	48 c1 e2 28          	shl    $0x28,%rdx
    26b5:	48 09 c2             	or     %rax,%rdx
    26b8:	0f b6 43 de          	movzbl -0x22(%rbx),%eax
    26bc:	48 c1 e0 30          	shl    $0x30,%rax
    26c0:	48 09 c2             	or     %rax,%rdx
    26c3:	0f b6 43 df          	movzbl -0x21(%rbx),%eax
    26c7:	48 c1 e0 38          	shl    $0x38,%rax
    26cb:	48 09 d0             	or     %rdx,%rax
    26ce:	48 31 85 80 00 00 00 	xor    %rax,0x80(%rbp)
    26d5:	0f b6 43 e1          	movzbl -0x1f(%rbx),%eax
    26d9:	0f b6 53 e2          	movzbl -0x1e(%rbx),%edx
    26dd:	48 c1 e0 08          	shl    $0x8,%rax
    26e1:	48 c1 e2 10          	shl    $0x10,%rdx
    26e5:	48 09 d0             	or     %rdx,%rax
    26e8:	0f b6 53 e0          	movzbl -0x20(%rbx),%edx
    26ec:	48 09 d0             	or     %rdx,%rax
    26ef:	0f b6 53 e3          	movzbl -0x1d(%rbx),%edx
    26f3:	48 c1 e2 18          	shl    $0x18,%rdx
    26f7:	48 09 d0             	or     %rdx,%rax
    26fa:	0f b6 53 e4          	movzbl -0x1c(%rbx),%edx
    26fe:	48 c1 e2 20          	shl    $0x20,%rdx
    2702:	48 09 d0             	or     %rdx,%rax
    2705:	0f b6 53 e5          	movzbl -0x1b(%rbx),%edx
    2709:	48 c1 e2 28          	shl    $0x28,%rdx
    270d:	48 09 c2             	or     %rax,%rdx
    2710:	0f b6 43 e6          	movzbl -0x1a(%rbx),%eax
    2714:	48 c1 e0 30          	shl    $0x30,%rax
    2718:	48 09 c2             	or     %rax,%rdx
    271b:	0f b6 43 e7          	movzbl -0x19(%rbx),%eax
    271f:	48 c1 e0 38          	shl    $0x38,%rax
    2723:	48 09 d0             	or     %rdx,%rax
    2726:	48 31 85 88 00 00 00 	xor    %rax,0x88(%rbp)
    272d:	0f b6 43 e9          	movzbl -0x17(%rbx),%eax
    2731:	0f b6 53 ea          	movzbl -0x16(%rbx),%edx
    2735:	48 c1 e0 08          	shl    $0x8,%rax
    2739:	48 c1 e2 10          	shl    $0x10,%rdx
    273d:	48 09 d0             	or     %rdx,%rax
    2740:	0f b6 53 e8          	movzbl -0x18(%rbx),%edx
    2744:	48 09 d0             	or     %rdx,%rax
    2747:	0f b6 53 eb          	movzbl -0x15(%rbx),%edx
    274b:	48 c1 e2 18          	shl    $0x18,%rdx
    274f:	48 09 d0             	or     %rdx,%rax
    2752:	0f b6 53 ec          	movzbl -0x14(%rbx),%edx
    2756:	48 c1 e2 20          	shl    $0x20,%rdx
    275a:	48 09 d0             	or     %rdx,%rax
    275d:	0f b6 53 ed          	movzbl -0x13(%rbx),%edx
    2761:	48 c1 e2 28          	shl    $0x28,%rdx
    2765:	48 09 c2             	or     %rax,%rdx
    2768:	0f b6 43 ee          	movzbl -0x12(%rbx),%eax
    276c:	48 c1 e0 30          	shl    $0x30,%rax
    2770:	48 09 c2             	or     %rax,%rdx
    2773:	0f b6 43 ef          	movzbl -0x11(%rbx),%eax
    2777:	48 c1 e0 38          	shl    $0x38,%rax
    277b:	48 09 d0             	or     %rdx,%rax
    277e:	48 31 85 90 00 00 00 	xor    %rax,0x90(%rbp)
    2785:	0f b6 43 f1          	movzbl -0xf(%rbx),%eax
    2789:	0f b6 53 f2          	movzbl -0xe(%rbx),%edx
    278d:	48 c1 e0 08          	shl    $0x8,%rax
    2791:	48 c1 e2 10          	shl    $0x10,%rdx
    2795:	48 09 d0             	or     %rdx,%rax
    2798:	0f b6 53 f0          	movzbl -0x10(%rbx),%edx
    279c:	48 09 d0             	or     %rdx,%rax
    279f:	0f b6 53 f3          	movzbl -0xd(%rbx),%edx
    27a3:	48 c1 e2 18          	shl    $0x18,%rdx
    27a7:	48 09 d0             	or     %rdx,%rax
    27aa:	0f b6 53 f4          	movzbl -0xc(%rbx),%edx
    27ae:	48 c1 e2 20          	shl    $0x20,%rdx
    27b2:	48 09 d0             	or     %rdx,%rax
    27b5:	0f b6 53 f5          	movzbl -0xb(%rbx),%edx
    27b9:	48 c1 e2 28          	shl    $0x28,%rdx
    27bd:	48 09 c2             	or     %rax,%rdx
    27c0:	0f b6 43 f6          	movzbl -0xa(%rbx),%eax
    27c4:	48 c1 e0 30          	shl    $0x30,%rax
    27c8:	48 09 c2             	or     %rax,%rdx
    27cb:	0f b6 43 f7          	movzbl -0x9(%rbx),%eax
    27cf:	48 c1 e0 38          	shl    $0x38,%rax
    27d3:	48 09 d0             	or     %rdx,%rax
    27d6:	48 31 85 98 00 00 00 	xor    %rax,0x98(%rbp)
    27dd:	0f b6 43 f9          	movzbl -0x7(%rbx),%eax
    27e1:	0f b6 53 fa          	movzbl -0x6(%rbx),%edx
    27e5:	48 c1 e0 08          	shl    $0x8,%rax
    27e9:	48 c1 e2 10          	shl    $0x10,%rdx
    27ed:	48 09 d0             	or     %rdx,%rax
    27f0:	0f b6 53 f8          	movzbl -0x8(%rbx),%edx
    27f4:	48 09 d0             	or     %rdx,%rax
    27f7:	0f b6 53 fb          	movzbl -0x5(%rbx),%edx
    27fb:	48 c1 e2 18          	shl    $0x18,%rdx
    27ff:	48 09 d0             	or     %rdx,%rax
    2802:	0f b6 53 fc          	movzbl -0x4(%rbx),%edx
    2806:	48 c1 e2 20          	shl    $0x20,%rdx
    280a:	48 09 d0             	or     %rdx,%rax
    280d:	0f b6 53 fd          	movzbl -0x3(%rbx),%edx
    2811:	48 c1 e2 28          	shl    $0x28,%rdx
    2815:	48 09 c2             	or     %rax,%rdx
    2818:	0f b6 43 fe          	movzbl -0x2(%rbx),%eax
    281c:	48 c1 e0 30          	shl    $0x30,%rax
    2820:	48 09 c2             	or     %rax,%rdx
    2823:	0f b6 43 ff          	movzbl -0x1(%rbx),%eax
    2827:	48 c1 e0 38          	shl    $0x38,%rax
    282b:	48 09 d0             	or     %rdx,%rax
    282e:	48 31 85 a0 00 00 00 	xor    %rax,0xa0(%rbp)
    2835:	48 89 ef             	mov    %rbp,%rdi
    2838:	49 81 ee a8 00 00 00 	sub    $0xa8,%r14
    283f:	e8 cc ed ff ff       	callq  1610 <KeccakF1600_StatePermute>
    2844:	48 89 de             	mov    %rbx,%rsi
    2847:	48 81 c3 a8 00 00 00 	add    $0xa8,%rbx
    284e:	49 81 fe a7 00 00 00 	cmp    $0xa7,%r14
    2855:	0f 86 8b 00 00 00    	jbe    28e6 <keccak_absorb.constprop.0+0x966>
    285b:	48 8d 83 58 ff ff ff 	lea    -0xa8(%rbx),%rax
    2862:	4c 89 e2             	mov    %r12,%rdx
    2865:	48 29 c2             	sub    %rax,%rdx
    2868:	48 81 fa fe 00 00 00 	cmp    $0xfe,%rdx
    286f:	0f 87 6b f7 ff ff    	ja     1fe0 <keccak_absorb.constprop.0+0x60>
    2875:	48 89 ee             	mov    %rbp,%rsi
    2878:	0f 1f 84 00 00 00 00 	nopl   0x0(%rax,%rax,1)
    287f:	00 
    2880:	0f b6 50 01          	movzbl 0x1(%rax),%edx
    2884:	0f b6 48 02          	movzbl 0x2(%rax),%ecx
    2888:	48 83 c0 08          	add    $0x8,%rax
    288c:	48 c1 e1 10          	shl    $0x10,%rcx
    2890:	48 c1 e2 08          	shl    $0x8,%rdx
    2894:	48 09 ca             	or     %rcx,%rdx
    2897:	0f b6 48 f8          	movzbl -0x8(%rax),%ecx
    289b:	48 09 ca             	or     %rcx,%rdx
    289e:	0f b6 48 fb          	movzbl -0x5(%rax),%ecx
    28a2:	48 c1 e1 18          	shl    $0x18,%rcx
    28a6:	48 09 ca             	or     %rcx,%rdx
    28a9:	0f b6 48 fc          	movzbl -0x4(%rax),%ecx
    28ad:	48 c1 e1 20          	shl    $0x20,%rcx
    28b1:	48 09 ca             	or     %rcx,%rdx
    28b4:	0f b6 48 fd          	movzbl -0x3(%rax),%ecx
    28b8:	48 c1 e1 28          	shl    $0x28,%rcx
    28bc:	48 09 d1             	or     %rdx,%rcx
    28bf:	0f b6 50 fe          	movzbl -0x2(%rax),%edx
    28c3:	48 c1 e2 30          	shl    $0x30,%rdx
    28c7:	48 09 d1             	or     %rdx,%rcx
    28ca:	0f b6 50 ff          	movzbl -0x1(%rax),%edx
    28ce:	48 c1 e2 38          	shl    $0x38,%rdx
    28d2:	48 09 ca             	or     %rcx,%rdx
    28d5:	48 31 16             	xor    %rdx,(%rsi)
    28d8:	48 83 c6 08          	add    $0x8,%rsi
    28dc:	48 39 c3             	cmp    %rax,%rbx
    28df:	75 9f                	jne    2880 <keccak_absorb.constprop.0+0x900>
    28e1:	e9 4f ff ff ff       	jmpq   2835 <keccak_absorb.constprop.0+0x8b5>
    28e6:	48 8d 94 24 90 00 00 	lea    0x90(%rsp),%rdx
    28ed:	00 
    28ee:	b9 15 00 00 00       	mov    $0x15,%ecx
    28f3:	31 c0                	xor    %eax,%eax
    28f5:	48 89 d7             	mov    %rdx,%rdi
    28f8:	f3 48 ab             	rep stos %rax,%es:(%rdi)
    28fb:	4d 85 f6             	test   %r14,%r14
    28fe:	74 35                	je     2935 <keccak_absorb.constprop.0+0x9b5>
    2900:	45 89 f0             	mov    %r14d,%r8d
    2903:	48 89 d7             	mov    %rdx,%rdi
    2906:	41 83 fe 08          	cmp    $0x8,%r14d
    290a:	72 09                	jb     2915 <keccak_absorb.constprop.0+0x995>
    290c:	44 89 f1             	mov    %r14d,%ecx
    290f:	c1 e9 03             	shr    $0x3,%ecx
    2912:	f3 48 a5             	rep movsq %ds:(%rsi),%es:(%rdi)
    2915:	31 c0                	xor    %eax,%eax
    2917:	41 f6 c0 04          	test   $0x4,%r8b
    291b:	0f 85 6d 09 00 00    	jne    328e <keccak_absorb.constprop.0+0x130e>
    2921:	41 f6 c0 02          	test   $0x2,%r8b
    2925:	0f 85 4b 09 00 00    	jne    3276 <keccak_absorb.constprop.0+0x12f6>
    292b:	41 83 e0 01          	and    $0x1,%r8d
    292f:	0f 85 35 09 00 00    	jne    326a <keccak_absorb.constprop.0+0x12ea>
    2935:	46 88 ac 34 90 00 00 	mov    %r13b,0x90(%rsp,%r14,1)
    293c:	00 
    293d:	0f b6 84 24 37 01 00 	movzbl 0x137(%rsp),%eax
    2944:	00 
    2945:	c5 f9 6f 9c 24 90 00 	vmovdqa 0x90(%rsp),%xmm3
    294c:	00 00 
    294e:	c5 99 db 84 24 a0 00 	vpand  0xa0(%rsp),%xmm12,%xmm0
    2955:	00 00 
    2957:	c5 99 db bc 24 90 00 	vpand  0x90(%rsp),%xmm12,%xmm7
    295e:	00 00 
    2960:	83 c8 80             	or     $0xffffff80,%eax
    2963:	c5 99 db b4 24 b0 00 	vpand  0xb0(%rsp),%xmm12,%xmm6
    296a:	00 00 
    296c:	c5 f9 6f 8c 24 c0 00 	vmovdqa 0xc0(%rsp),%xmm1
    2973:	00 00 
    2975:	c5 d9 71 d3 08       	vpsrlw $0x8,%xmm3,%xmm4
    297a:	c5 f9 6f 9c 24 a0 00 	vmovdqa 0xa0(%rsp),%xmm3
    2981:	00 00 
    2983:	c5 99 db ac 24 f0 00 	vpand  0xf0(%rsp),%xmm12,%xmm5
    298a:	00 00 
    298c:	c5 c1 67 f8          	vpackuswb %xmm0,%xmm7,%xmm7
    2990:	c5 f9 71 d3 08       	vpsrlw $0x8,%xmm3,%xmm0
    2995:	c5 19 db d7          	vpand  %xmm7,%xmm12,%xmm10
    2999:	c5 f9 6f 9c 24 b0 00 	vmovdqa 0xb0(%rsp),%xmm3
    29a0:	00 00 
    29a2:	c5 d9 67 e0          	vpackuswb %xmm0,%xmm4,%xmm4
    29a6:	c5 c1 71 d7 08       	vpsrlw $0x8,%xmm7,%xmm7
    29ab:	c5 99 db 84 24 c0 00 	vpand  0xc0(%rsp),%xmm12,%xmm0
    29b2:	00 00 
    29b4:	c5 e1 71 d3 08       	vpsrlw $0x8,%xmm3,%xmm3
    29b9:	c5 19 db dc          	vpand  %xmm4,%xmm12,%xmm11
    29bd:	c5 c9 67 f0          	vpackuswb %xmm0,%xmm6,%xmm6
    29c1:	c5 f9 71 d1 08       	vpsrlw $0x8,%xmm1,%xmm0
    29c6:	c5 99 db 8c 24 d0 00 	vpand  0xd0(%rsp),%xmm12,%xmm1
    29cd:	00 00 
    29cf:	c5 e1 67 d8          	vpackuswb %xmm0,%xmm3,%xmm3
    29d3:	c5 d9 71 d4 08       	vpsrlw $0x8,%xmm4,%xmm4
    29d8:	c5 99 db 84 24 e0 00 	vpand  0xe0(%rsp),%xmm12,%xmm0
    29df:	00 00 
    29e1:	c5 f1 67 c0          	vpackuswb %xmm0,%xmm1,%xmm0
    29e5:	c5 f9 6f 8c 24 d0 00 	vmovdqa 0xd0(%rsp),%xmm1
    29ec:	00 00 
    29ee:	c5 e9 71 d1 08       	vpsrlw $0x8,%xmm1,%xmm2
    29f3:	c5 f9 6f 8c 24 e0 00 	vmovdqa 0xe0(%rsp),%xmm1
    29fa:	00 00 
    29fc:	c5 f1 71 d1 08       	vpsrlw $0x8,%xmm1,%xmm1
    2a01:	c5 e9 67 d1          	vpackuswb %xmm1,%xmm2,%xmm2
    2a05:	c5 99 db 8c 24 00 01 	vpand  0x100(%rsp),%xmm12,%xmm1
    2a0c:	00 00 
    2a0e:	c5 d1 67 e9          	vpackuswb %xmm1,%xmm5,%xmm5
    2a12:	c5 f9 6f 8c 24 f0 00 	vmovdqa 0xf0(%rsp),%xmm1
    2a19:	00 00 
    2a1b:	c5 b9 71 d1 08       	vpsrlw $0x8,%xmm1,%xmm8
    2a20:	c5 f9 6f 8c 24 00 01 	vmovdqa 0x100(%rsp),%xmm1
    2a27:	00 00 
    2a29:	c5 f1 71 d1 08       	vpsrlw $0x8,%xmm1,%xmm1
    2a2e:	c5 b9 67 c9          	vpackuswb %xmm1,%xmm8,%xmm1
    2a32:	c5 19 db c6          	vpand  %xmm6,%xmm12,%xmm8
    2a36:	c5 c9 71 d6 08       	vpsrlw $0x8,%xmm6,%xmm6
    2a3b:	c4 41 29 67 d0       	vpackuswb %xmm8,%xmm10,%xmm10
    2a40:	c5 41 67 c6          	vpackuswb %xmm6,%xmm7,%xmm8
    2a44:	c5 99 db f5          	vpand  %xmm5,%xmm12,%xmm6
    2a48:	c5 99 db f8          	vpand  %xmm0,%xmm12,%xmm7
    2a4c:	c5 d1 71 d5 08       	vpsrlw $0x8,%xmm5,%xmm5
    2a51:	c5 f9 71 d0 08       	vpsrlw $0x8,%xmm0,%xmm0
    2a56:	c5 c1 67 fe          	vpackuswb %xmm6,%xmm7,%xmm7
    2a5a:	c5 f9 67 c5          	vpackuswb %xmm5,%xmm0,%xmm0
    2a5e:	c5 99 db eb          	vpand  %xmm3,%xmm12,%xmm5
    2a62:	c4 c1 19 db f2       	vpand  %xmm10,%xmm12,%xmm6
    2a67:	c5 e1 71 d3 08       	vpsrlw $0x8,%xmm3,%xmm3
    2a6c:	c5 21 67 dd          	vpackuswb %xmm5,%xmm11,%xmm11
    2a70:	c5 59 67 cb          	vpackuswb %xmm3,%xmm4,%xmm9
    2a74:	c5 99 db d9          	vpand  %xmm1,%xmm12,%xmm3
    2a78:	c5 99 db e2          	vpand  %xmm2,%xmm12,%xmm4
    2a7c:	c5 f1 71 d1 08       	vpsrlw $0x8,%xmm1,%xmm1
    2a81:	c5 e9 71 d2 08       	vpsrlw $0x8,%xmm2,%xmm2
    2a86:	c5 d9 67 e3          	vpackuswb %xmm3,%xmm4,%xmm4
    2a8a:	c4 c1 51 71 d2 08    	vpsrlw $0x8,%xmm10,%xmm5
    2a90:	c4 c1 61 71 d3 08    	vpsrlw $0x8,%xmm11,%xmm3
    2a96:	c5 e9 67 d1          	vpackuswb %xmm1,%xmm2,%xmm2
    2a9a:	c5 99 db cf          	vpand  %xmm7,%xmm12,%xmm1
    2a9e:	c5 c1 71 d7 08       	vpsrlw $0x8,%xmm7,%xmm7
    2aa3:	c5 d1 67 ef          	vpackuswb %xmm7,%xmm5,%xmm5
    2aa7:	c5 c9 67 f1          	vpackuswb %xmm1,%xmm6,%xmm6
    2aab:	c4 c1 19 db fb       	vpand  %xmm11,%xmm12,%xmm7
    2ab0:	c5 99 db cc          	vpand  %xmm4,%xmm12,%xmm1
    2ab4:	c5 d9 71 d4 08       	vpsrlw $0x8,%xmm4,%xmm4
    2ab9:	c4 62 79 30 de       	vpmovzxbw %xmm6,%xmm11
    2abe:	c5 e1 67 dc          	vpackuswb %xmm4,%xmm3,%xmm3
    2ac2:	c5 c1 67 f9          	vpackuswb %xmm1,%xmm7,%xmm7
    2ac6:	c4 c1 19 db e0       	vpand  %xmm8,%xmm12,%xmm4
    2acb:	c5 99 db c8          	vpand  %xmm0,%xmm12,%xmm1
    2acf:	c5 f9 71 d0 08       	vpsrlw $0x8,%xmm0,%xmm0
    2ad4:	c4 42 79 33 f3       	vpmovzxwd %xmm11,%xmm14
    2ad9:	c5 d9 67 e1          	vpackuswb %xmm1,%xmm4,%xmm4
    2add:	c4 c1 71 71 d0 08    	vpsrlw $0x8,%xmm8,%xmm1
    2ae3:	c4 41 19 db c1       	vpand  %xmm9,%xmm12,%xmm8
    2ae8:	c4 c1 31 71 d1 08    	vpsrlw $0x8,%xmm9,%xmm9
    2aee:	c5 c9 73 de 08       	vpsrldq $0x8,%xmm6,%xmm6
    2af3:	c5 f1 67 c8          	vpackuswb %xmm0,%xmm1,%xmm1
    2af7:	c5 99 db c2          	vpand  %xmm2,%xmm12,%xmm0
    2afb:	c5 e9 71 d2 08       	vpsrlw $0x8,%xmm2,%xmm2
    2b00:	c4 e2 79 30 f6       	vpmovzxbw %xmm6,%xmm6
    2b05:	c5 31 67 d2          	vpackuswb %xmm2,%xmm9,%xmm10
    2b09:	c5 b9 67 c0          	vpackuswb %xmm0,%xmm8,%xmm0
    2b0d:	c4 62 79 30 cf       	vpmovzxbw %xmm7,%xmm9
    2b12:	c4 c1 31 71 f1 08    	vpsllw $0x8,%xmm9,%xmm9
    2b18:	c5 e9 73 dc 08       	vpsrldq $0x8,%xmm4,%xmm2
    2b1d:	c4 62 79 30 c4       	vpmovzxbw %xmm4,%xmm8
    2b22:	c4 42 79 33 e8       	vpmovzxwd %xmm8,%xmm13
    2b27:	c4 c1 39 73 d8 08    	vpsrldq $0x8,%xmm8,%xmm8
    2b2d:	c4 e2 79 30 e0       	vpmovzxbw %xmm0,%xmm4
    2b32:	c4 42 79 33 e1       	vpmovzxwd %xmm9,%xmm12
    2b37:	c4 c1 11 72 f5 10    	vpslld $0x10,%xmm13,%xmm13
    2b3d:	c4 42 79 33 c0       	vpmovzxwd %xmm8,%xmm8
    2b42:	c4 c1 31 73 d9 08    	vpsrldq $0x8,%xmm9,%xmm9
    2b48:	c4 41 11 eb ec       	vpor   %xmm12,%xmm13,%xmm13
    2b4d:	c4 62 79 33 e4       	vpmovzxwd %xmm4,%xmm12
    2b52:	c4 42 79 33 c9       	vpmovzxwd %xmm9,%xmm9
    2b57:	c4 c1 39 72 f0 10    	vpslld $0x10,%xmm8,%xmm8
    2b5d:	c4 e2 79 30 d2       	vpmovzxbw %xmm2,%xmm2
    2b62:	c5 d9 73 dc 08       	vpsrldq $0x8,%xmm4,%xmm4
    2b67:	c5 c1 73 df 08       	vpsrldq $0x8,%xmm7,%xmm7
    2b6c:	c4 41 39 eb c1       	vpor   %xmm9,%xmm8,%xmm8
    2b71:	c4 e2 79 33 e4       	vpmovzxwd %xmm4,%xmm4
    2b76:	c4 c1 31 73 db 08    	vpsrldq $0x8,%xmm11,%xmm9
    2b7c:	c4 e2 79 30 ff       	vpmovzxbw %xmm7,%xmm7
    2b81:	c4 42 79 33 c9       	vpmovzxwd %xmm9,%xmm9
    2b86:	c5 d9 72 f4 18       	vpslld $0x18,%xmm4,%xmm4
    2b8b:	c4 62 79 33 de       	vpmovzxwd %xmm6,%xmm11
    2b90:	c5 c1 71 f7 08       	vpsllw $0x8,%xmm7,%xmm7
    2b95:	c5 f9 73 d8 08       	vpsrldq $0x8,%xmm0,%xmm0
    2b9a:	c4 c1 59 eb e1       	vpor   %xmm9,%xmm4,%xmm4
    2b9f:	c4 62 79 33 ca       	vpmovzxwd %xmm2,%xmm9
    2ba4:	c5 b9 eb e4          	vpor   %xmm4,%xmm8,%xmm4
    2ba8:	c4 e2 79 30 c0       	vpmovzxbw %xmm0,%xmm0
    2bad:	c4 c1 31 72 f1 10    	vpslld $0x10,%xmm9,%xmm9
    2bb3:	c5 e9 73 da 08       	vpsrldq $0x8,%xmm2,%xmm2
    2bb8:	c4 62 79 33 c7       	vpmovzxwd %xmm7,%xmm8
    2bbd:	c4 41 31 eb c8       	vpor   %xmm8,%xmm9,%xmm9
    2bc2:	c4 62 79 33 c0       	vpmovzxwd %xmm0,%xmm8
    2bc7:	c4 e2 79 33 d2       	vpmovzxwd %xmm2,%xmm2
    2bcc:	c5 f9 73 d8 08       	vpsrldq $0x8,%xmm0,%xmm0
    2bd1:	c5 c1 73 df 08       	vpsrldq $0x8,%xmm7,%xmm7
    2bd6:	c4 e2 79 33 c0       	vpmovzxwd %xmm0,%xmm0
    2bdb:	c5 c9 73 de 08       	vpsrldq $0x8,%xmm6,%xmm6
    2be0:	c4 e2 79 33 ff       	vpmovzxwd %xmm7,%xmm7
    2be5:	c5 e9 72 f2 10       	vpslld $0x10,%xmm2,%xmm2
    2bea:	c5 f9 72 f0 18       	vpslld $0x18,%xmm0,%xmm0
    2bef:	c4 e2 79 33 f6       	vpmovzxwd %xmm6,%xmm6
    2bf4:	c5 e9 eb d7          	vpor   %xmm7,%xmm2,%xmm2
    2bf8:	c4 c1 39 72 f0 18    	vpslld $0x18,%xmm8,%xmm8
    2bfe:	c5 f9 eb c6          	vpor   %xmm6,%xmm0,%xmm0
    2c02:	c5 e9 eb f0          	vpor   %xmm0,%xmm2,%xmm6
    2c06:	c5 f9 73 dd 08       	vpsrldq $0x8,%xmm5,%xmm0
    2c0b:	c4 e2 79 30 d5       	vpmovzxbw %xmm5,%xmm2
    2c10:	c4 e2 79 30 c0       	vpmovzxbw %xmm0,%xmm0
    2c15:	c4 62 79 33 fa       	vpmovzxwd %xmm2,%xmm15
    2c1a:	c4 41 39 eb c3       	vpor   %xmm11,%xmm8,%xmm8
    2c1f:	c5 f8 29 74 24 60    	vmovaps %xmm6,0x60(%rsp)
    2c25:	c4 62 79 33 d8       	vpmovzxwd %xmm0,%xmm11
    2c2a:	c5 e9 73 da 08       	vpsrldq $0x8,%xmm2,%xmm2
    2c2f:	c4 e2 79 30 eb       	vpmovzxbw %xmm3,%xmm5
    2c34:	c5 78 29 7c 24 50    	vmovaps %xmm15,0x50(%rsp)
    2c3a:	c5 f9 73 d8 08       	vpsrldq $0x8,%xmm0,%xmm0
    2c3f:	c4 e2 79 33 f2       	vpmovzxwd %xmm2,%xmm6
    2c44:	c4 41 31 eb c8       	vpor   %xmm8,%xmm9,%xmm9
    2c49:	c4 e2 79 33 d0       	vpmovzxwd %xmm0,%xmm2
    2c4e:	c5 f9 73 db 08       	vpsrldq $0x8,%xmm3,%xmm0
    2c53:	c4 e2 79 30 d9       	vpmovzxbw %xmm1,%xmm3
    2c58:	c5 f1 73 d9 08       	vpsrldq $0x8,%xmm1,%xmm1
    2c5d:	c4 c1 19 72 f4 18    	vpslld $0x18,%xmm12,%xmm12
    2c63:	c4 e2 79 30 c0       	vpmovzxbw %xmm0,%xmm0
    2c68:	c4 e2 79 30 c9       	vpmovzxbw %xmm1,%xmm1
    2c6d:	c4 41 19 eb e6       	vpor   %xmm14,%xmm12,%xmm12
    2c72:	c4 62 79 33 f5       	vpmovzxwd %xmm5,%xmm14
    2c77:	c4 e2 79 33 f9       	vpmovzxwd %xmm1,%xmm7
    2c7c:	c5 d1 73 dd 08       	vpsrldq $0x8,%xmm5,%xmm5
    2c81:	c5 78 29 74 24 40    	vmovaps %xmm14,0x40(%rsp)
    2c87:	c4 41 11 eb e4       	vpor   %xmm12,%xmm13,%xmm12
    2c8c:	c4 62 79 33 c5       	vpmovzxwd %xmm5,%xmm8
    2c91:	c5 f8 29 7c 24 30    	vmovaps %xmm7,0x30(%rsp)
    2c97:	c4 e2 79 33 eb       	vpmovzxwd %xmm3,%xmm5
    2c9c:	c4 c2 79 30 fa       	vpmovzxbw %xmm10,%xmm7
    2ca1:	c4 c1 29 73 da 08    	vpsrldq $0x8,%xmm10,%xmm10
    2ca7:	c5 f8 29 6c 24 10    	vmovaps %xmm5,0x10(%rsp)
    2cad:	c4 e2 79 33 ef       	vpmovzxwd %xmm7,%xmm5
    2cb2:	c4 62 79 33 e8       	vpmovzxwd %xmm0,%xmm13
    2cb7:	c4 42 79 30 d2       	vpmovzxbw %xmm10,%xmm10
    2cbc:	c5 f8 29 2c 24       	vmovaps %xmm5,(%rsp)
    2cc1:	c4 c1 09 73 de 08    	vpsrldq $0x8,%xmm14,%xmm14
    2cc7:	c4 c2 79 33 ea       	vpmovzxwd %xmm10,%xmm5
    2ccc:	c4 c1 29 73 da 08    	vpsrldq $0x8,%xmm10,%xmm10
    2cd2:	c4 42 79 35 f6       	vpmovzxdq %xmm14,%xmm14
    2cd7:	c4 c1 09 73 f6 28    	vpsllq $0x28,%xmm14,%xmm14
    2cdd:	c5 e1 73 db 08       	vpsrldq $0x8,%xmm3,%xmm3
    2ce2:	c4 42 79 33 d2       	vpmovzxwd %xmm10,%xmm10
    2ce7:	c5 78 29 54 24 20    	vmovaps %xmm10,0x20(%rsp)
    2ced:	c4 c1 29 73 df 08    	vpsrldq $0x8,%xmm15,%xmm10
    2cf3:	c5 79 6f 7c 24 10    	vmovdqa 0x10(%rsp),%xmm15
    2cf9:	c5 c1 73 df 08       	vpsrldq $0x8,%xmm7,%xmm7
    2cfe:	c4 42 79 35 d2       	vpmovzxdq %xmm10,%xmm10
    2d03:	c4 e2 79 33 db       	vpmovzxwd %xmm3,%xmm3
    2d08:	c4 e2 79 33 ff       	vpmovzxwd %xmm7,%xmm7
    2d0d:	c4 c1 29 73 f2 20    	vpsllq $0x20,%xmm10,%xmm10
    2d13:	c5 f9 73 d8 08       	vpsrldq $0x8,%xmm0,%xmm0
    2d18:	c4 41 09 eb f2       	vpor   %xmm10,%xmm14,%xmm14
    2d1d:	c4 c1 29 73 df 08    	vpsrldq $0x8,%xmm15,%xmm10
    2d23:	c5 79 6f 3c 24       	vmovdqa (%rsp),%xmm15
    2d28:	c4 e2 79 33 c0       	vpmovzxwd %xmm0,%xmm0
    2d2d:	c4 42 79 35 d2       	vpmovzxdq %xmm10,%xmm10
    2d32:	c5 f1 73 d9 08       	vpsrldq $0x8,%xmm1,%xmm1
    2d37:	c4 c1 01 73 df 08    	vpsrldq $0x8,%xmm15,%xmm15
    2d3d:	c4 c1 29 73 f2 30    	vpsllq $0x30,%xmm10,%xmm10
    2d43:	c4 e2 79 33 c9       	vpmovzxwd %xmm1,%xmm1
    2d48:	c4 42 79 35 ff       	vpmovzxdq %xmm15,%xmm15
    2d4d:	c4 c1 01 73 f7 38    	vpsllq $0x38,%xmm15,%xmm15
    2d53:	c4 41 29 eb d7       	vpor   %xmm15,%xmm10,%xmm10
    2d58:	c4 62 79 35 ff       	vpmovzxdq %xmm7,%xmm15
    2d5d:	c5 c1 73 df 08       	vpsrldq $0x8,%xmm7,%xmm7
    2d62:	c4 c1 01 73 f7 38    	vpsllq $0x38,%xmm15,%xmm15
    2d68:	c4 41 09 eb f2       	vpor   %xmm10,%xmm14,%xmm14
    2d6d:	c4 c1 29 73 dc 08    	vpsrldq $0x8,%xmm12,%xmm10
    2d73:	c4 e2 79 35 ff       	vpmovzxdq %xmm7,%xmm7
    2d78:	c4 42 79 35 d2       	vpmovzxdq %xmm10,%xmm10
    2d7d:	c5 c1 73 f7 38       	vpsllq $0x38,%xmm7,%xmm7
    2d82:	c4 41 09 eb f2       	vpor   %xmm10,%xmm14,%xmm14
    2d87:	c5 09 ef 75 10       	vpxor  0x10(%rbp),%xmm14,%xmm14
    2d8c:	c4 62 79 35 d6       	vpmovzxdq %xmm6,%xmm10
    2d91:	c4 c1 29 73 f2 20    	vpsllq $0x20,%xmm10,%xmm10
    2d97:	c5 c9 73 de 08       	vpsrldq $0x8,%xmm6,%xmm6
    2d9c:	c5 78 29 74 24 70    	vmovaps %xmm14,0x70(%rsp)
    2da2:	c4 42 79 35 f0       	vpmovzxdq %xmm8,%xmm14
    2da7:	c4 c1 39 73 d8 08    	vpsrldq $0x8,%xmm8,%xmm8
    2dad:	c4 e2 79 35 f6       	vpmovzxdq %xmm6,%xmm6
    2db2:	c4 c1 09 73 f6 28    	vpsllq $0x28,%xmm14,%xmm14
    2db8:	c5 c9 73 f6 20       	vpsllq $0x20,%xmm6,%xmm6
    2dbd:	c4 42 79 35 c0       	vpmovzxdq %xmm8,%xmm8
    2dc2:	c4 41 09 eb f2       	vpor   %xmm10,%xmm14,%xmm14
    2dc7:	c4 c1 39 73 f0 28    	vpsllq $0x28,%xmm8,%xmm8
    2dcd:	c4 62 79 35 d3       	vpmovzxdq %xmm3,%xmm10
    2dd2:	c5 e1 73 db 08       	vpsrldq $0x8,%xmm3,%xmm3
    2dd7:	c4 c1 29 73 f2 30    	vpsllq $0x30,%xmm10,%xmm10
    2ddd:	c5 b9 eb f6          	vpor   %xmm6,%xmm8,%xmm6
    2de1:	c4 e2 79 35 db       	vpmovzxdq %xmm3,%xmm3
    2de6:	c4 41 29 eb d7       	vpor   %xmm15,%xmm10,%xmm10
    2deb:	c5 e1 73 f3 30       	vpsllq $0x30,%xmm3,%xmm3
    2df0:	c4 41 09 eb f2       	vpor   %xmm10,%xmm14,%xmm14
    2df5:	c4 62 79 35 d4       	vpmovzxdq %xmm4,%xmm10
    2dfa:	c5 e1 eb df          	vpor   %xmm7,%xmm3,%xmm3
    2dfe:	c5 d9 73 dc 08       	vpsrldq $0x8,%xmm4,%xmm4
    2e03:	c4 41 09 eb f2       	vpor   %xmm10,%xmm14,%xmm14
    2e08:	c5 79 6f 54 24 30    	vmovdqa 0x30(%rsp),%xmm10
    2e0e:	c5 c9 eb db          	vpor   %xmm3,%xmm6,%xmm3
    2e12:	c4 e2 79 35 e4       	vpmovzxdq %xmm4,%xmm4
    2e17:	c4 e2 79 35 f5       	vpmovzxdq %xmm5,%xmm6
    2e1c:	c5 e1 eb dc          	vpor   %xmm4,%xmm3,%xmm3
    2e20:	c4 c2 79 35 e5       	vpmovzxdq %xmm13,%xmm4
    2e25:	c5 e1 ef 7d 30       	vpxor  0x30(%rbp),%xmm3,%xmm7
    2e2a:	c4 c2 79 35 db       	vpmovzxdq %xmm11,%xmm3
    2e2f:	c5 d9 73 f4 28       	vpsllq $0x28,%xmm4,%xmm4
    2e34:	c5 09 ef 75 20       	vpxor  0x20(%rbp),%xmm14,%xmm14
    2e39:	c5 e1 73 f3 20       	vpsllq $0x20,%xmm3,%xmm3
    2e3e:	c5 c9 73 f6 38       	vpsllq $0x38,%xmm6,%xmm6
    2e43:	c5 d9 eb e3          	vpor   %xmm3,%xmm4,%xmm4
    2e47:	c5 d1 73 dd 08       	vpsrldq $0x8,%xmm5,%xmm5
    2e4c:	c4 c2 79 35 da       	vpmovzxdq %xmm10,%xmm3
    2e51:	c5 e1 73 f3 30       	vpsllq $0x30,%xmm3,%xmm3
    2e56:	c4 e2 79 35 ed       	vpmovzxdq %xmm5,%xmm5
    2e5b:	c5 e1 eb de          	vpor   %xmm6,%xmm3,%xmm3
    2e5f:	c5 d1 73 f5 38       	vpsllq $0x38,%xmm5,%xmm5
    2e64:	c5 d9 eb e3          	vpor   %xmm3,%xmm4,%xmm4
    2e68:	c4 c2 79 35 d9       	vpmovzxdq %xmm9,%xmm3
    2e6d:	c5 d9 eb e3          	vpor   %xmm3,%xmm4,%xmm4
    2e71:	c4 c1 61 73 dd 08    	vpsrldq $0x8,%xmm13,%xmm3
    2e77:	c5 59 ef 45 40       	vpxor  0x40(%rbp),%xmm4,%xmm8
    2e7c:	0f b6 94 24 12 01 00 	movzbl 0x112(%rsp),%edx
    2e83:	00 
    2e84:	c4 c1 59 73 db 08    	vpsrldq $0x8,%xmm11,%xmm4
    2e8a:	c4 e2 79 35 db       	vpmovzxdq %xmm3,%xmm3
    2e8f:	0f b6 8c 24 11 01 00 	movzbl 0x111(%rsp),%ecx
    2e96:	00 
    2e97:	c5 79 6f 6c 24 20    	vmovdqa 0x20(%rsp),%xmm13
    2e9d:	c4 e2 79 35 e4       	vpmovzxdq %xmm4,%xmm4
    2ea2:	c5 e1 73 f3 28       	vpsllq $0x28,%xmm3,%xmm3
    2ea7:	48 c1 e2 10          	shl    $0x10,%rdx
    2eab:	c5 79 6f 7c 24 50    	vmovdqa 0x50(%rsp),%xmm15
    2eb1:	c5 d9 73 f4 20       	vpsllq $0x20,%xmm4,%xmm4
    2eb6:	48 c1 e1 08          	shl    $0x8,%rcx
    2eba:	c4 c2 79 35 f5       	vpmovzxdq %xmm13,%xmm6
    2ebf:	c5 78 11 75 20       	vmovups %xmm14,0x20(%rbp)
    2ec4:	c5 e1 eb dc          	vpor   %xmm4,%xmm3,%xmm3
    2ec8:	c4 c1 59 73 da 08    	vpsrldq $0x8,%xmm10,%xmm4
    2ece:	48 09 ca             	or     %rcx,%rdx
    2ed1:	0f b6 8c 24 10 01 00 	movzbl 0x110(%rsp),%ecx
    2ed8:	00 
    2ed9:	c4 e2 79 35 e4       	vpmovzxdq %xmm4,%xmm4
    2ede:	c5 c9 73 f6 38       	vpsllq $0x38,%xmm6,%xmm6
    2ee3:	c5 f8 11 7d 30       	vmovups %xmm7,0x30(%rbp)
    2ee8:	c5 d9 73 f4 30       	vpsllq $0x30,%xmm4,%xmm4
    2eed:	48 09 ca             	or     %rcx,%rdx
    2ef0:	0f b6 8c 24 13 01 00 	movzbl 0x113(%rsp),%ecx
    2ef7:	00 
    2ef8:	c5 78 11 45 40       	vmovups %xmm8,0x40(%rbp)
    2efd:	c5 d9 eb e5          	vpor   %xmm5,%xmm4,%xmm4
    2f01:	c4 e2 79 35 e8       	vpmovzxdq %xmm0,%xmm5
    2f06:	c5 e1 eb e4          	vpor   %xmm4,%xmm3,%xmm4
    2f0a:	c4 c1 61 73 d9 08    	vpsrldq $0x8,%xmm9,%xmm3
    2f10:	48 c1 e1 18          	shl    $0x18,%rcx
    2f14:	c4 e2 79 35 db       	vpmovzxdq %xmm3,%xmm3
    2f19:	c5 f9 73 d8 08       	vpsrldq $0x8,%xmm0,%xmm0
    2f1e:	48 09 ca             	or     %rcx,%rdx
    2f21:	0f b6 8c 24 14 01 00 	movzbl 0x114(%rsp),%ecx
    2f28:	00 
    2f29:	c5 d9 eb e3          	vpor   %xmm3,%xmm4,%xmm4
    2f2d:	c4 e2 79 35 da       	vpmovzxdq %xmm2,%xmm3
    2f32:	c4 e2 79 35 c0       	vpmovzxdq %xmm0,%xmm0
    2f37:	c5 e9 73 da 08       	vpsrldq $0x8,%xmm2,%xmm2
    2f3c:	c5 e1 73 f3 20       	vpsllq $0x20,%xmm3,%xmm3
    2f41:	48 c1 e1 20          	shl    $0x20,%rcx
    2f45:	c5 d9 ef 65 50       	vpxor  0x50(%rbp),%xmm4,%xmm4
    2f4a:	c4 e2 79 35 d2       	vpmovzxdq %xmm2,%xmm2
    2f4f:	c5 d1 73 f5 28       	vpsllq $0x28,%xmm5,%xmm5
    2f54:	48 09 ca             	or     %rcx,%rdx
    2f57:	0f b6 8c 24 15 01 00 	movzbl 0x115(%rsp),%ecx
    2f5e:	00 
    2f5f:	c5 e9 73 f2 20       	vpsllq $0x20,%xmm2,%xmm2
    2f64:	c5 f9 73 f0 28       	vpsllq $0x28,%xmm0,%xmm0
    2f69:	c5 d1 eb eb          	vpor   %xmm3,%xmm5,%xmm5
    2f6d:	c5 f8 11 65 50       	vmovups %xmm4,0x50(%rbp)
    2f72:	c4 e2 79 35 d9       	vpmovzxdq %xmm1,%xmm3
    2f77:	c5 f9 eb c2          	vpor   %xmm2,%xmm0,%xmm0
    2f7b:	48 c1 e1 28          	shl    $0x28,%rcx
    2f7f:	c5 f1 73 d9 08       	vpsrldq $0x8,%xmm1,%xmm1
    2f84:	c4 c1 69 73 dd 08    	vpsrldq $0x8,%xmm13,%xmm2
    2f8a:	48 09 d1             	or     %rdx,%rcx
    2f8d:	0f b6 94 24 16 01 00 	movzbl 0x116(%rsp),%edx
    2f94:	00 
    2f95:	c5 e1 73 f3 30       	vpsllq $0x30,%xmm3,%xmm3
    2f9a:	c4 e2 79 35 c9       	vpmovzxdq %xmm1,%xmm1
    2f9f:	c4 e2 79 35 d2       	vpmovzxdq %xmm2,%xmm2
    2fa4:	c5 e1 eb de          	vpor   %xmm6,%xmm3,%xmm3
    2fa8:	c5 e9 73 f2 38       	vpsllq $0x38,%xmm2,%xmm2
    2fad:	c5 f9 6f 74 24 60    	vmovdqa 0x60(%rsp),%xmm6
    2fb3:	48 c1 e2 30          	shl    $0x30,%rdx
    2fb7:	c5 f1 73 f1 30       	vpsllq $0x30,%xmm1,%xmm1
    2fbc:	c5 d1 eb eb          	vpor   %xmm3,%xmm5,%xmm5
    2fc0:	48 09 d1             	or     %rdx,%rcx
    2fc3:	0f b6 94 24 17 01 00 	movzbl 0x117(%rsp),%edx
    2fca:	00 
    2fcb:	c5 f1 eb ca          	vpor   %xmm2,%xmm1,%xmm1
    2fcf:	c4 e2 79 35 de       	vpmovzxdq %xmm6,%xmm3
    2fd4:	c4 c2 79 35 d7       	vpmovzxdq %xmm15,%xmm2
    2fd9:	c5 f9 eb c1          	vpor   %xmm1,%xmm0,%xmm0
    2fdd:	c5 f1 73 de 08       	vpsrldq $0x8,%xmm6,%xmm1
    2fe2:	c5 d1 eb db          	vpor   %xmm3,%xmm5,%xmm3
    2fe6:	48 c1 e2 38          	shl    $0x38,%rdx
    2fea:	c4 e2 79 35 c9       	vpmovzxdq %xmm1,%xmm1
    2fef:	c5 e9 73 f2 20       	vpsllq $0x20,%xmm2,%xmm2
    2ff4:	c5 e1 ef 5d 60       	vpxor  0x60(%rbp),%xmm3,%xmm3
    2ff9:	48 09 ca             	or     %rcx,%rdx
    2ffc:	c5 f9 eb c1          	vpor   %xmm1,%xmm0,%xmm0
    3000:	c5 f9 6f 4c 24 40    	vmovdqa 0x40(%rsp),%xmm1
    3006:	c5 f9 6f 6c 24 10    	vmovdqa 0x10(%rsp),%xmm5
    300c:	48 31 95 80 00 00 00 	xor    %rdx,0x80(%rbp)
    3013:	0f b6 8c 24 1a 01 00 	movzbl 0x11a(%rsp),%ecx
    301a:	00 
    301b:	c4 e2 79 35 c9       	vpmovzxdq %xmm1,%xmm1
    3020:	c5 f9 ef 45 70       	vpxor  0x70(%rbp),%xmm0,%xmm0
    3025:	c5 f8 11 5d 60       	vmovups %xmm3,0x60(%rbp)
    302a:	0f b6 94 24 19 01 00 	movzbl 0x119(%rsp),%edx
    3031:	00 
    3032:	c5 f1 73 f1 28       	vpsllq $0x28,%xmm1,%xmm1
    3037:	48 c1 e1 10          	shl    $0x10,%rcx
    303b:	c5 f1 eb ca          	vpor   %xmm2,%xmm1,%xmm1
    303f:	c4 e2 79 35 d5       	vpmovzxdq %xmm5,%xmm2
    3044:	c5 f9 6f 2c 24       	vmovdqa (%rsp),%xmm5
    3049:	48 c1 e2 08          	shl    $0x8,%rdx
    304d:	c5 e9 73 f2 30       	vpsllq $0x30,%xmm2,%xmm2
    3052:	48 09 ca             	or     %rcx,%rdx
    3055:	c5 f8 11 45 70       	vmovups %xmm0,0x70(%rbp)
    305a:	c4 e2 79 35 ed       	vpmovzxdq %xmm5,%xmm5
    305f:	c5 d1 73 f5 38       	vpsllq $0x38,%xmm5,%xmm5
    3064:	c5 e9 eb d5          	vpor   %xmm5,%xmm2,%xmm2
    3068:	c5 f1 eb ca          	vpor   %xmm2,%xmm1,%xmm1
    306c:	c4 c2 79 35 d4       	vpmovzxdq %xmm12,%xmm2
    3071:	c5 f1 eb ca          	vpor   %xmm2,%xmm1,%xmm1
    3075:	c5 f1 ef 4d 00       	vpxor  0x0(%rbp),%xmm1,%xmm1
    307a:	c5 f8 11 4d 00       	vmovups %xmm1,0x0(%rbp)
    307f:	c5 f9 6f 4c 24 70    	vmovdqa 0x70(%rsp),%xmm1
    3085:	c5 f8 11 4d 10       	vmovups %xmm1,0x10(%rbp)
    308a:	0f b6 8c 24 18 01 00 	movzbl 0x118(%rsp),%ecx
    3091:	00 
    3092:	48 09 ca             	or     %rcx,%rdx
    3095:	0f b6 8c 24 1b 01 00 	movzbl 0x11b(%rsp),%ecx
    309c:	00 
    309d:	48 c1 e1 18          	shl    $0x18,%rcx
    30a1:	48 09 ca             	or     %rcx,%rdx
    30a4:	0f b6 8c 24 1c 01 00 	movzbl 0x11c(%rsp),%ecx
    30ab:	00 
    30ac:	48 c1 e1 20          	shl    $0x20,%rcx
    30b0:	48 09 ca             	or     %rcx,%rdx
    30b3:	0f b6 8c 24 1d 01 00 	movzbl 0x11d(%rsp),%ecx
    30ba:	00 
    30bb:	48 c1 e1 28          	shl    $0x28,%rcx
    30bf:	48 09 d1             	or     %rdx,%rcx
    30c2:	0f b6 94 24 1e 01 00 	movzbl 0x11e(%rsp),%edx
    30c9:	00 
    30ca:	48 c1 e2 30          	shl    $0x30,%rdx
    30ce:	48 09 d1             	or     %rdx,%rcx
    30d1:	0f b6 94 24 1f 01 00 	movzbl 0x11f(%rsp),%edx
    30d8:	00 
    30d9:	48 c1 e2 38          	shl    $0x38,%rdx
    30dd:	48 09 ca             	or     %rcx,%rdx
    30e0:	0f b6 8c 24 21 01 00 	movzbl 0x121(%rsp),%ecx
    30e7:	00 
    30e8:	48 31 95 88 00 00 00 	xor    %rdx,0x88(%rbp)
    30ef:	0f b6 94 24 22 01 00 	movzbl 0x122(%rsp),%edx
    30f6:	00 
    30f7:	48 c1 e2 10          	shl    $0x10,%rdx
    30fb:	48 c1 e1 08          	shl    $0x8,%rcx
    30ff:	48 09 ca             	or     %rcx,%rdx
    3102:	0f b6 8c 24 20 01 00 	movzbl 0x120(%rsp),%ecx
    3109:	00 
    310a:	48 09 ca             	or     %rcx,%rdx
    310d:	0f b6 8c 24 23 01 00 	movzbl 0x123(%rsp),%ecx
    3114:	00 
    3115:	48 c1 e1 18          	shl    $0x18,%rcx
    3119:	48 09 ca             	or     %rcx,%rdx
    311c:	0f b6 8c 24 24 01 00 	movzbl 0x124(%rsp),%ecx
    3123:	00 
    3124:	48 c1 e1 20          	shl    $0x20,%rcx
    3128:	48 09 ca             	or     %rcx,%rdx
    312b:	0f b6 8c 24 25 01 00 	movzbl 0x125(%rsp),%ecx
    3132:	00 
    3133:	48 c1 e1 28          	shl    $0x28,%rcx
    3137:	48 09 d1             	or     %rdx,%rcx
    313a:	0f b6 94 24 26 01 00 	movzbl 0x126(%rsp),%edx
    3141:	00 
    3142:	48 c1 e2 30          	shl    $0x30,%rdx
    3146:	48 09 d1             	or     %rdx,%rcx
    3149:	0f b6 94 24 27 01 00 	movzbl 0x127(%rsp),%edx
    3150:	00 
    3151:	48 c1 e2 38          	shl    $0x38,%rdx
    3155:	48 09 ca             	or     %rcx,%rdx
    3158:	0f b6 8c 24 2a 01 00 	movzbl 0x12a(%rsp),%ecx
    315f:	00 
    3160:	48 31 95 90 00 00 00 	xor    %rdx,0x90(%rbp)
    3167:	0f b6 94 24 29 01 00 	movzbl 0x129(%rsp),%edx
    316e:	00 
    316f:	48 c1 e1 10          	shl    $0x10,%rcx
    3173:	48 c1 e2 08          	shl    $0x8,%rdx
    3177:	48 09 ca             	or     %rcx,%rdx
    317a:	0f b6 8c 24 28 01 00 	movzbl 0x128(%rsp),%ecx
    3181:	00 
    3182:	48 09 ca             	or     %rcx,%rdx
    3185:	0f b6 8c 24 2b 01 00 	movzbl 0x12b(%rsp),%ecx
    318c:	00 
    318d:	48 c1 e1 18          	shl    $0x18,%rcx
    3191:	48 09 ca             	or     %rcx,%rdx
    3194:	0f b6 8c 24 2c 01 00 	movzbl 0x12c(%rsp),%ecx
    319b:	00 
    319c:	48 c1 e1 20          	shl    $0x20,%rcx
    31a0:	48 09 ca             	or     %rcx,%rdx
    31a3:	0f b6 8c 24 2d 01 00 	movzbl 0x12d(%rsp),%ecx
    31aa:	00 
    31ab:	48 c1 e1 28          	shl    $0x28,%rcx
    31af:	48 09 d1             	or     %rdx,%rcx
    31b2:	0f b6 94 24 2e 01 00 	movzbl 0x12e(%rsp),%edx
    31b9:	00 
    31ba:	48 c1 e2 30          	shl    $0x30,%rdx
    31be:	48 09 d1             	or     %rdx,%rcx
    31c1:	0f b6 94 24 2f 01 00 	movzbl 0x12f(%rsp),%edx
    31c8:	00 
    31c9:	48 c1 e2 38          	shl    $0x38,%rdx
    31cd:	48 09 ca             	or     %rcx,%rdx
    31d0:	0f b6 8c 24 31 01 00 	movzbl 0x131(%rsp),%ecx
    31d7:	00 
    31d8:	48 31 95 98 00 00 00 	xor    %rdx,0x98(%rbp)
    31df:	0f b6 94 24 32 01 00 	movzbl 0x132(%rsp),%edx
    31e6:	00 
    31e7:	48 c1 e1 08          	shl    $0x8,%rcx
    31eb:	48 c1 e2 10          	shl    $0x10,%rdx
    31ef:	48 09 ca             	or     %rcx,%rdx
    31f2:	0f b6 8c 24 30 01 00 	movzbl 0x130(%rsp),%ecx
    31f9:	00 
    31fa:	48 09 ca             	or     %rcx,%rdx
    31fd:	0f b6 8c 24 33 01 00 	movzbl 0x133(%rsp),%ecx
    3204:	00 
    3205:	48 c1 e0 38          	shl    $0x38,%rax
    3209:	48 c1 e1 18          	shl    $0x18,%rcx
    320d:	48 09 ca             	or     %rcx,%rdx
    3210:	0f b6 8c 24 34 01 00 	movzbl 0x134(%rsp),%ecx
    3217:	00 
    3218:	48 c1 e1 20          	shl    $0x20,%rcx
    321c:	48 09 d1             	or     %rdx,%rcx
    321f:	0f b6 94 24 35 01 00 	movzbl 0x135(%rsp),%edx
    3226:	00 
    3227:	48 c1 e2 28          	shl    $0x28,%rdx
    322b:	48 09 d1             	or     %rdx,%rcx
    322e:	0f b6 94 24 36 01 00 	movzbl 0x136(%rsp),%edx
    3235:	00 
    3236:	48 c1 e2 30          	shl    $0x30,%rdx
    323a:	48 09 ca             	or     %rcx,%rdx
    323d:	48 09 d0             	or     %rdx,%rax
    3240:	48 31 85 a0 00 00 00 	xor    %rax,0xa0(%rbp)
    3247:	48 8b 84 24 58 01 00 	mov    0x158(%rsp),%rax
    324e:	00 
    324f:	64 48 33 04 25 28 00 	xor    %fs:0x28,%rax
    3256:	00 00 
    3258:	75 49                	jne    32a3 <keccak_absorb.constprop.0+0x1323>
    325a:	48 81 c4 60 01 00 00 	add    $0x160,%rsp
    3261:	5b                   	pop    %rbx
    3262:	5d                   	pop    %rbp
    3263:	41 5c                	pop    %r12
    3265:	41 5d                	pop    %r13
    3267:	41 5e                	pop    %r14
    3269:	c3                   	retq   
    326a:	0f b6 14 06          	movzbl (%rsi,%rax,1),%edx
    326e:	88 14 07             	mov    %dl,(%rdi,%rax,1)
    3271:	e9 bf f6 ff ff       	jmpq   2935 <keccak_absorb.constprop.0+0x9b5>
    3276:	0f b7 14 06          	movzwl (%rsi,%rax,1),%edx
    327a:	66 89 14 07          	mov    %dx,(%rdi,%rax,1)
    327e:	48 83 c0 02          	add    $0x2,%rax
    3282:	41 83 e0 01          	and    $0x1,%r8d
    3286:	0f 84 a9 f6 ff ff    	je     2935 <keccak_absorb.constprop.0+0x9b5>
    328c:	eb dc                	jmp    326a <keccak_absorb.constprop.0+0x12ea>
    328e:	8b 06                	mov    (%rsi),%eax
    3290:	89 07                	mov    %eax,(%rdi)
    3292:	b8 04 00 00 00       	mov    $0x4,%eax
    3297:	41 f6 c0 02          	test   $0x2,%r8b
    329b:	0f 84 8a f6 ff ff    	je     292b <keccak_absorb.constprop.0+0x9ab>
    32a1:	eb d3                	jmp    3276 <keccak_absorb.constprop.0+0x12f6>
    32a3:	e8 28 de ff ff       	callq  10d0 <__stack_chk_fail@plt>
    32a8:	0f 1f 84 00 00 00 00 	nopl   0x0(%rax,%rax,1)
    32af:	00 

00000000000032b0 <keccak_absorb>:
    32b0:	f3 0f 1e fa          	endbr64 
    32b4:	55                   	push   %rbp
    32b5:	48 89 e5             	mov    %rsp,%rbp
    32b8:	41 57                	push   %r15
    32ba:	49 89 ff             	mov    %rdi,%r15
    32bd:	41 56                	push   %r14
    32bf:	49 89 ce             	mov    %rcx,%r14
    32c2:	41 55                	push   %r13
    32c4:	49 89 d5             	mov    %rdx,%r13
    32c7:	41 54                	push   %r12
    32c9:	41 89 f4             	mov    %esi,%r12d
    32cc:	53                   	push   %rbx
    32cd:	48 83 e4 e0          	and    $0xffffffffffffffe0,%rsp
    32d1:	48 81 ec 40 02 00 00 	sub    $0x240,%rsp
    32d8:	89 74 24 38          	mov    %esi,0x38(%rsp)
    32dc:	44 89 44 24 14       	mov    %r8d,0x14(%rsp)
    32e1:	64 48 8b 04 25 28 00 	mov    %fs:0x28,%rax
    32e8:	00 00 
    32ea:	48 89 84 24 38 02 00 	mov    %rax,0x238(%rsp)
    32f1:	00 
    32f2:	31 c0                	xor    %eax,%eax
    32f4:	4c 39 e1             	cmp    %r12,%rcx
    32f7:	0f 82 af 09 00 00    	jb     3cac <keccak_absorb+0x9fc>
    32fd:	c1 ee 03             	shr    $0x3,%esi
    3300:	c5 7d 6f 3d 78 be 05 	vmovdqa 0x5be78(%rip),%ymm15        # 5f180 <KeccakF_RoundConstants+0xe0>
    3307:	00 
    3308:	4d 89 e5             	mov    %r12,%r13
    330b:	49 89 d4             	mov    %rdx,%r12
    330e:	89 f3                	mov    %esi,%ebx
    3310:	89 74 24 3c          	mov    %esi,0x3c(%rsp)
    3314:	48 89 d8             	mov    %rbx,%rax
    3317:	49 89 de             	mov    %rbx,%r14
    331a:	48 c1 e8 05          	shr    $0x5,%rax
    331e:	48 c1 e0 08          	shl    $0x8,%rax
    3322:	48 89 44 24 28       	mov    %rax,0x28(%rsp)
    3327:	48 89 d8             	mov    %rbx,%rax
    332a:	48 83 e0 e0          	and    $0xffffffffffffffe0,%rax
    332e:	48 89 44 24 20       	mov    %rax,0x20(%rsp)
    3333:	48 c1 e0 03          	shl    $0x3,%rax
    3337:	48 89 44 24 30       	mov    %rax,0x30(%rsp)
    333c:	48 8d 04 dd 00 00 00 	lea    0x0(,%rbx,8),%rax
    3343:	00 
    3344:	48 89 cb             	mov    %rcx,%rbx
    3347:	48 89 44 24 18       	mov    %rax,0x18(%rsp)
    334c:	0f 1f 40 00          	nopl   0x0(%rax)
    3350:	8b 44 24 3c          	mov    0x3c(%rsp),%eax
    3354:	85 c0                	test   %eax,%eax
    3356:	0f 84 16 09 00 00    	je     3c72 <keccak_absorb+0x9c2>
    335c:	49 8d 87 ff 00 00 00 	lea    0xff(%r15),%rax
    3363:	4c 29 e0             	sub    %r12,%rax
    3366:	48 3d fe 01 00 00    	cmp    $0x1fe,%rax
    336c:	0f 86 96 12 00 00    	jbe    4608 <keccak_absorb+0x1358>
    3372:	49 8d 46 ff          	lea    -0x1(%r14),%rax
    3376:	48 83 f8 1e          	cmp    $0x1e,%rax
    337a:	0f 86 88 12 00 00    	jbe    4608 <keccak_absorb+0x1358>
    3380:	48 8b 7c 24 28       	mov    0x28(%rsp),%rdi
    3385:	4c 89 e2             	mov    %r12,%rdx
    3388:	4c 89 f8             	mov    %r15,%rax
    338b:	49 8d 34 3c          	lea    (%r12,%rdi,1),%rsi
    338f:	90                   	nop
    3390:	c5 fa 6f 0a          	vmovdqu (%rdx),%xmm1
    3394:	c4 e3 75 38 42 10 01 	vinserti128 $0x1,0x10(%rdx),%ymm1,%ymm0
    339b:	48 81 c2 00 01 00 00 	add    $0x100,%rdx
    33a2:	48 05 00 01 00 00    	add    $0x100,%rax
    33a8:	c5 fa 6f 8a 20 ff ff 	vmovdqu -0xe0(%rdx),%xmm1
    33af:	ff 
    33b0:	c5 fa 6f ba 40 ff ff 	vmovdqu -0xc0(%rdx),%xmm7
    33b7:	ff 
    33b8:	c4 e3 75 38 9a 30 ff 	vinserti128 $0x1,-0xd0(%rdx),%ymm1,%ymm3
    33bf:	ff ff 01 
    33c2:	c5 fa 6f 8a 60 ff ff 	vmovdqu -0xa0(%rdx),%xmm1
    33c9:	ff 
    33ca:	c5 05 db c8          	vpand  %ymm0,%ymm15,%ymm9
    33ce:	c4 e3 45 38 92 50 ff 	vinserti128 $0x1,-0xb0(%rdx),%ymm7,%ymm2
    33d5:	ff ff 01 
    33d8:	c5 fa 6f 62 80       	vmovdqu -0x80(%rdx),%xmm4
    33dd:	c5 fd 71 d0 08       	vpsrlw $0x8,%ymm0,%ymm0
    33e2:	c4 63 75 38 82 70 ff 	vinserti128 $0x1,-0x90(%rdx),%ymm1,%ymm8
    33e9:	ff ff 01 
    33ec:	c5 fa 6f 7a a0       	vmovdqu -0x60(%rdx),%xmm7
    33f1:	c5 85 db eb          	vpand  %ymm3,%ymm15,%ymm5
    33f5:	c4 e3 5d 38 4a 90 01 	vinserti128 $0x1,-0x70(%rdx),%ymm4,%ymm1
    33fc:	c4 e3 45 38 72 b0 01 	vinserti128 $0x1,-0x50(%rdx),%ymm7,%ymm6
    3403:	c5 35 67 cd          	vpackuswb %ymm5,%ymm9,%ymm9
    3407:	c5 e5 71 d3 08       	vpsrlw $0x8,%ymm3,%ymm3
    340c:	c5 fa 6f 62 c0       	vmovdqu -0x40(%rdx),%xmm4
    3411:	c5 85 db ea          	vpand  %ymm2,%ymm15,%ymm5
    3415:	c4 43 fd 00 c9 d8    	vpermq $0xd8,%ymm9,%ymm9
    341b:	c4 e3 5d 38 62 d0 01 	vinserti128 $0x1,-0x30(%rdx),%ymm4,%ymm4
    3422:	c5 fa 6f 7a e0       	vmovdqu -0x20(%rdx),%xmm7
    3427:	c5 fd 67 c3          	vpackuswb %ymm3,%ymm0,%ymm0
    342b:	c4 c1 05 db d8       	vpand  %ymm8,%ymm15,%ymm3
    3430:	c4 e3 45 38 7a f0 01 	vinserti128 $0x1,-0x10(%rdx),%ymm7,%ymm7
    3437:	c4 c1 3d 71 d0 08    	vpsrlw $0x8,%ymm8,%ymm8
    343d:	c5 d5 67 eb          	vpackuswb %ymm3,%ymm5,%ymm5
    3441:	c5 ed 71 d2 08       	vpsrlw $0x8,%ymm2,%ymm2
    3446:	c5 85 db d9          	vpand  %ymm1,%ymm15,%ymm3
    344a:	c4 e3 fd 00 ed d8    	vpermq $0xd8,%ymm5,%ymm5
    3450:	c4 c1 6d 67 d0       	vpackuswb %ymm8,%ymm2,%ymm2
    3455:	c5 f5 71 d1 08       	vpsrlw $0x8,%ymm1,%ymm1
    345a:	c5 05 db c6          	vpand  %ymm6,%ymm15,%ymm8
    345e:	c5 cd 71 d6 08       	vpsrlw $0x8,%ymm6,%ymm6
    3463:	c4 c1 65 67 d8       	vpackuswb %ymm8,%ymm3,%ymm3
    3468:	c5 05 db c7          	vpand  %ymm7,%ymm15,%ymm8
    346c:	c5 f5 67 ce          	vpackuswb %ymm6,%ymm1,%ymm1
    3470:	c5 85 db f4          	vpand  %ymm4,%ymm15,%ymm6
    3474:	c4 e3 fd 00 db d8    	vpermq $0xd8,%ymm3,%ymm3
    347a:	c4 c1 4d 67 f0       	vpackuswb %ymm8,%ymm6,%ymm6
    347f:	c5 dd 71 d4 08       	vpsrlw $0x8,%ymm4,%ymm4
    3484:	c4 41 05 db c1       	vpand  %ymm9,%ymm15,%ymm8
    3489:	c5 c5 71 d7 08       	vpsrlw $0x8,%ymm7,%ymm7
    348e:	c4 e3 fd 00 f6 d8    	vpermq $0xd8,%ymm6,%ymm6
    3494:	c4 e3 fd 00 c0 d8    	vpermq $0xd8,%ymm0,%ymm0
    349a:	c5 dd 67 ff          	vpackuswb %ymm7,%ymm4,%ymm7
    349e:	c5 85 db e5          	vpand  %ymm5,%ymm15,%ymm4
    34a2:	c4 e3 fd 00 d2 d8    	vpermq $0xd8,%ymm2,%ymm2
    34a8:	c5 3d 67 c4          	vpackuswb %ymm4,%ymm8,%ymm8
    34ac:	c5 05 db db          	vpand  %ymm3,%ymm15,%ymm11
    34b0:	c5 85 db e6          	vpand  %ymm6,%ymm15,%ymm4
    34b4:	c5 e5 71 d3 08       	vpsrlw $0x8,%ymm3,%ymm3
    34b9:	c5 cd 71 d6 08       	vpsrlw $0x8,%ymm6,%ymm6
    34be:	c4 e3 fd 00 c9 d8    	vpermq $0xd8,%ymm1,%ymm1
    34c4:	c4 e3 fd 00 ff d8    	vpermq $0xd8,%ymm7,%ymm7
    34ca:	c5 25 67 dc          	vpackuswb %ymm4,%ymm11,%ymm11
    34ce:	c5 e5 67 f6          	vpackuswb %ymm6,%ymm3,%ymm6
    34d2:	c5 85 db e2          	vpand  %ymm2,%ymm15,%ymm4
    34d6:	c5 85 db d8          	vpand  %ymm0,%ymm15,%ymm3
    34da:	c5 05 db d1          	vpand  %ymm1,%ymm15,%ymm10
    34de:	c5 ed 71 d2 08       	vpsrlw $0x8,%ymm2,%ymm2
    34e3:	c5 fd 71 d0 08       	vpsrlw $0x8,%ymm0,%ymm0
    34e8:	c4 43 fd 00 c0 d8    	vpermq $0xd8,%ymm8,%ymm8
    34ee:	c5 fd 67 c2          	vpackuswb %ymm2,%ymm0,%ymm0
    34f2:	c5 85 db d7          	vpand  %ymm7,%ymm15,%ymm2
    34f6:	c4 43 fd 00 db d8    	vpermq $0xd8,%ymm11,%ymm11
    34fc:	c4 c1 35 71 d1 08    	vpsrlw $0x8,%ymm9,%ymm9
    3502:	c5 e5 67 dc          	vpackuswb %ymm4,%ymm3,%ymm3
    3506:	c5 2d 67 d2          	vpackuswb %ymm2,%ymm10,%ymm10
    350a:	c5 d5 71 d5 08       	vpsrlw $0x8,%ymm5,%ymm5
    350f:	c4 c1 05 db d3       	vpand  %ymm11,%ymm15,%ymm2
    3514:	c4 e3 fd 00 db d8    	vpermq $0xd8,%ymm3,%ymm3
    351a:	c5 b5 67 ed          	vpackuswb %ymm5,%ymm9,%ymm5
    351e:	c4 43 fd 00 d2 d8    	vpermq $0xd8,%ymm10,%ymm10
    3524:	c4 41 05 db c8       	vpand  %ymm8,%ymm15,%ymm9
    3529:	c5 c5 71 d7 08       	vpsrlw $0x8,%ymm7,%ymm7
    352e:	c5 f5 71 d1 08       	vpsrlw $0x8,%ymm1,%ymm1
    3533:	c4 e3 fd 00 ed d8    	vpermq $0xd8,%ymm5,%ymm5
    3539:	c4 e3 fd 00 f6 d8    	vpermq $0xd8,%ymm6,%ymm6
    353f:	c5 f5 67 cf          	vpackuswb %ymm7,%ymm1,%ymm1
    3543:	c5 35 67 ca          	vpackuswb %ymm2,%ymm9,%ymm9
    3547:	c4 c1 05 db fa       	vpand  %ymm10,%ymm15,%ymm7
    354c:	c5 85 db d3          	vpand  %ymm3,%ymm15,%ymm2
    3550:	c4 e3 fd 00 c0 d8    	vpermq $0xd8,%ymm0,%ymm0
    3556:	c4 c1 5d 71 d0 08    	vpsrlw $0x8,%ymm8,%ymm4
    355c:	c5 ed 67 d7          	vpackuswb %ymm7,%ymm2,%ymm2
    3560:	c5 05 db c6          	vpand  %ymm6,%ymm15,%ymm8
    3564:	c5 85 db fd          	vpand  %ymm5,%ymm15,%ymm7
    3568:	c4 e3 fd 00 c9 d8    	vpermq $0xd8,%ymm1,%ymm1
    356e:	c4 e3 fd 00 d2 d8    	vpermq $0xd8,%ymm2,%ymm2
    3574:	c4 c1 45 67 f8       	vpackuswb %ymm8,%ymm7,%ymm7
    3579:	c5 cd 71 d6 08       	vpsrlw $0x8,%ymm6,%ymm6
    357e:	c5 05 db c1          	vpand  %ymm1,%ymm15,%ymm8
    3582:	c5 d5 71 d5 08       	vpsrlw $0x8,%ymm5,%ymm5
    3587:	c4 e3 fd 00 ff d8    	vpermq $0xd8,%ymm7,%ymm7
    358d:	c4 62 7d 30 e2       	vpmovzxbw %xmm2,%ymm12
    3592:	c5 d5 67 ee          	vpackuswb %ymm6,%ymm5,%ymm5
    3596:	c5 f5 71 d1 08       	vpsrlw $0x8,%ymm1,%ymm1
    359b:	c5 85 db f0          	vpand  %ymm0,%ymm15,%ymm6
    359f:	c5 fd 71 d0 08       	vpsrlw $0x8,%ymm0,%ymm0
    35a4:	c4 c1 2d 71 d2 08    	vpsrlw $0x8,%ymm10,%ymm10
    35aa:	c4 c1 4d 67 f0       	vpackuswb %ymm8,%ymm6,%ymm6
    35af:	c5 fd 67 c1          	vpackuswb %ymm1,%ymm0,%ymm0
    35b3:	c5 e5 71 d3 08       	vpsrlw $0x8,%ymm3,%ymm3
    35b8:	c4 e2 7d 30 cf       	vpmovzxbw %xmm7,%ymm1
    35bd:	c4 c1 1d 71 f4 08    	vpsllw $0x8,%ymm12,%ymm12
    35c3:	c4 c1 65 67 da       	vpackuswb %ymm10,%ymm3,%ymm3
    35c8:	c4 e3 fd 00 f6 d8    	vpermq $0xd8,%ymm6,%ymm6
    35ce:	c4 62 7d 33 d1       	vpmovzxwd %xmm1,%ymm10
    35d3:	c4 42 7d 33 ec       	vpmovzxwd %xmm12,%ymm13
    35d8:	c4 43 fd 00 c9 d8    	vpermq $0xd8,%ymm9,%ymm9
    35de:	c4 c1 25 71 d3 08    	vpsrlw $0x8,%ymm11,%ymm11
    35e4:	c4 c3 7d 39 d0 01    	vextracti128 $0x1,%ymm2,%xmm8
    35ea:	c4 e3 fd 00 db d8    	vpermq $0xd8,%ymm3,%ymm3
    35f0:	c4 e2 7d 30 d6       	vpmovzxbw %xmm6,%ymm2
    35f5:	c4 c1 2d 72 f2 10    	vpslld $0x10,%ymm10,%ymm10
    35fb:	c4 c1 5d 67 e3       	vpackuswb %ymm11,%ymm4,%ymm4
    3600:	c4 41 2d eb d5       	vpor   %ymm13,%ymm10,%ymm10
    3605:	c4 42 7d 30 d9       	vpmovzxbw %xmm9,%ymm11
    360a:	c4 e3 fd 00 e4 d8    	vpermq $0xd8,%ymm4,%ymm4
    3610:	c4 62 7d 33 ea       	vpmovzxwd %xmm2,%ymm13
    3615:	c4 42 7d 33 f3       	vpmovzxwd %xmm11,%ymm14
    361a:	c4 e3 fd 00 ed d8    	vpermq $0xd8,%ymm5,%ymm5
    3620:	c4 c1 15 72 f5 18    	vpslld $0x18,%ymm13,%ymm13
    3626:	c4 e3 7d 39 c9 01    	vextracti128 $0x1,%ymm1,%xmm1
    362c:	c4 e3 fd 00 c0 d8    	vpermq $0xd8,%ymm0,%ymm0
    3632:	c4 41 15 eb ee       	vpor   %ymm14,%ymm13,%ymm13
    3637:	c4 e2 7d 33 c9       	vpmovzxwd %xmm1,%ymm1
    363c:	c4 e3 7d 39 d2 01    	vextracti128 $0x1,%ymm2,%xmm2
    3642:	c4 41 2d eb f5       	vpor   %ymm13,%ymm10,%ymm14
    3647:	c5 f5 72 f1 10       	vpslld $0x10,%ymm1,%ymm1
    364c:	c4 43 7d 39 e2 01    	vextracti128 $0x1,%ymm12,%xmm10
    3652:	c4 42 7d 33 d2       	vpmovzxwd %xmm10,%ymm10
    3657:	c4 e3 7d 39 ff 01    	vextracti128 $0x1,%ymm7,%xmm7
    365d:	c4 42 7d 30 c0       	vpmovzxbw %xmm8,%ymm8
    3662:	c5 7d 7f b4 24 00 01 	vmovdqa %ymm14,0x100(%rsp)
    3669:	00 00 
    366b:	c4 41 75 eb d2       	vpor   %ymm10,%ymm1,%ymm10
    3670:	c4 43 7d 39 db 01    	vextracti128 $0x1,%ymm11,%xmm11
    3676:	c4 e2 7d 33 ca       	vpmovzxwd %xmm2,%ymm1
    367b:	c4 e2 7d 30 ff       	vpmovzxbw %xmm7,%ymm7
    3680:	c4 42 7d 33 db       	vpmovzxwd %xmm11,%ymm11
    3685:	c4 e3 7d 39 f6 01    	vextracti128 $0x1,%ymm6,%xmm6
    368b:	c5 f5 72 f1 18       	vpslld $0x18,%ymm1,%ymm1
    3690:	c4 c1 3d 71 f0 08    	vpsllw $0x8,%ymm8,%ymm8
    3696:	c4 e2 7d 33 d7       	vpmovzxwd %xmm7,%ymm2
    369b:	c4 c1 75 eb cb       	vpor   %ymm11,%ymm1,%ymm1
    36a0:	c5 ed 72 f2 10       	vpslld $0x10,%ymm2,%ymm2
    36a5:	c4 e2 7d 30 f6       	vpmovzxbw %xmm6,%ymm6
    36aa:	c5 ad eb c9          	vpor   %ymm1,%ymm10,%ymm1
    36ae:	c4 43 7d 39 c9 01    	vextracti128 $0x1,%ymm9,%xmm9
    36b4:	c4 42 7d 33 d0       	vpmovzxwd %xmm8,%ymm10
    36b9:	c4 41 6d eb d2       	vpor   %ymm10,%ymm2,%ymm10
    36be:	c4 42 7d 30 c9       	vpmovzxbw %xmm9,%ymm9
    36c3:	c4 e2 7d 33 d6       	vpmovzxwd %xmm6,%ymm2
    36c8:	c4 e3 7d 39 ff 01    	vextracti128 $0x1,%ymm7,%xmm7
    36ce:	c5 ed 72 f2 18       	vpslld $0x18,%ymm2,%ymm2
    36d3:	c4 42 7d 33 d9       	vpmovzxwd %xmm9,%ymm11
    36d8:	c4 e3 7d 39 f6 01    	vextracti128 $0x1,%ymm6,%xmm6
    36de:	c4 e2 7d 33 ff       	vpmovzxwd %xmm7,%ymm7
    36e3:	c4 43 7d 39 c0 01    	vextracti128 $0x1,%ymm8,%xmm8
    36e9:	c4 e2 7d 33 f6       	vpmovzxwd %xmm6,%ymm6
    36ee:	c4 43 7d 39 c9 01    	vextracti128 $0x1,%ymm9,%xmm9
    36f4:	c4 42 7d 33 c0       	vpmovzxwd %xmm8,%ymm8
    36f9:	c4 42 7d 33 c9       	vpmovzxwd %xmm9,%ymm9
    36fe:	c5 c5 72 f7 10       	vpslld $0x10,%ymm7,%ymm7
    3703:	c4 c1 6d eb d3       	vpor   %ymm11,%ymm2,%ymm2
    3708:	c5 cd 72 f6 18       	vpslld $0x18,%ymm6,%ymm6
    370d:	c4 c1 45 eb f8       	vpor   %ymm8,%ymm7,%ymm7
    3712:	c5 ad eb d2          	vpor   %ymm2,%ymm10,%ymm2
    3716:	c4 c1 4d eb f1       	vpor   %ymm9,%ymm6,%ymm6
    371b:	c5 c5 eb fe          	vpor   %ymm6,%ymm7,%ymm7
    371f:	c4 e2 7d 30 f4       	vpmovzxbw %xmm4,%ymm6
    3724:	c4 e3 7d 39 e4 01    	vextracti128 $0x1,%ymm4,%xmm4
    372a:	c4 e2 7d 30 e4       	vpmovzxbw %xmm4,%ymm4
    372f:	c4 62 7d 33 e6       	vpmovzxwd %xmm6,%ymm12
    3734:	c5 fd 7f bc 24 e0 00 	vmovdqa %ymm7,0xe0(%rsp)
    373b:	00 00 
    373d:	c4 e3 7d 39 f6 01    	vextracti128 $0x1,%ymm6,%xmm6
    3743:	c4 62 7d 33 d4       	vpmovzxwd %xmm4,%ymm10
    3748:	c4 e3 7d 39 e4 01    	vextracti128 $0x1,%ymm4,%xmm4
    374e:	c4 e2 7d 33 f6       	vpmovzxwd %xmm6,%ymm6
    3753:	c5 7d 7f a4 24 c0 00 	vmovdqa %ymm12,0xc0(%rsp)
    375a:	00 00 
    375c:	c4 e2 7d 33 e4       	vpmovzxwd %xmm4,%ymm4
    3761:	c4 43 7d 39 e4 01    	vextracti128 $0x1,%ymm12,%xmm12
    3767:	c5 fd 7f a4 24 a0 00 	vmovdqa %ymm4,0xa0(%rsp)
    376e:	00 00 
    3770:	c4 e2 7d 30 e3       	vpmovzxbw %xmm3,%ymm4
    3775:	c4 e3 7d 39 db 01    	vextracti128 $0x1,%ymm3,%xmm3
    377b:	c4 42 7d 35 e4       	vpmovzxdq %xmm12,%ymm12
    3780:	c4 e2 7d 30 db       	vpmovzxbw %xmm3,%ymm3
    3785:	c4 62 7d 33 dc       	vpmovzxwd %xmm4,%ymm11
    378a:	c4 e3 7d 39 e4 01    	vextracti128 $0x1,%ymm4,%xmm4
    3790:	c4 62 7d 33 c3       	vpmovzxwd %xmm3,%ymm8
    3795:	c4 e3 7d 39 db 01    	vextracti128 $0x1,%ymm3,%xmm3
    379b:	c4 e2 7d 33 e4       	vpmovzxwd %xmm4,%ymm4
    37a0:	c5 7d 7f 9c 24 80 00 	vmovdqa %ymm11,0x80(%rsp)
    37a7:	00 00 
    37a9:	c4 62 7d 33 cb       	vpmovzxwd %xmm3,%ymm9
    37ae:	c4 e2 7d 30 dd       	vpmovzxbw %xmm5,%ymm3
    37b3:	c4 e3 7d 39 ed 01    	vextracti128 $0x1,%ymm5,%xmm5
    37b9:	c4 62 7d 33 eb       	vpmovzxwd %xmm3,%ymm13
    37be:	c4 e2 7d 30 ed       	vpmovzxbw %xmm5,%ymm5
    37c3:	c5 7d 7f 4c 24 60    	vmovdqa %ymm9,0x60(%rsp)
    37c9:	c4 e3 7d 39 db 01    	vextracti128 $0x1,%ymm3,%xmm3
    37cf:	c5 7d 7f ac 24 40 01 	vmovdqa %ymm13,0x140(%rsp)
    37d6:	00 00 
    37d8:	c4 c1 15 73 f4 20    	vpsllq $0x20,%ymm12,%ymm13
    37de:	c4 43 7d 39 dc 01    	vextracti128 $0x1,%ymm11,%xmm12
    37e4:	c4 e2 7d 33 fd       	vpmovzxwd %xmm5,%ymm7
    37e9:	c4 42 7d 35 e4       	vpmovzxdq %xmm12,%ymm12
    37ee:	c4 e3 7d 39 ed 01    	vextracti128 $0x1,%ymm5,%xmm5
    37f4:	c4 e2 7d 33 db       	vpmovzxwd %xmm3,%ymm3
    37f9:	c4 e2 7d 33 ed       	vpmovzxwd %xmm5,%ymm5
    37fe:	c4 c1 25 73 f4 28    	vpsllq $0x28,%ymm12,%ymm11
    3804:	c4 41 15 eb e3       	vpor   %ymm11,%ymm13,%ymm12
    3809:	c5 fd 7f 6c 24 40    	vmovdqa %ymm5,0x40(%rsp)
    380f:	c4 e2 7d 30 e8       	vpmovzxbw %xmm0,%ymm5
    3814:	c5 7d 6f ac 24 40 01 	vmovdqa 0x140(%rsp),%ymm13
    381b:	00 00 
    381d:	c4 62 7d 33 cd       	vpmovzxwd %xmm5,%ymm9
    3822:	c4 e3 7d 39 ed 01    	vextracti128 $0x1,%ymm5,%xmm5
    3828:	c4 e3 7d 39 c0 01    	vextracti128 $0x1,%ymm0,%xmm0
    382e:	c4 43 7d 39 eb 01    	vextracti128 $0x1,%ymm13,%xmm11
    3834:	c4 e2 7d 33 ed       	vpmovzxwd %xmm5,%ymm5
    3839:	c4 e2 7d 30 c0       	vpmovzxbw %xmm0,%ymm0
    383e:	c5 7d 7f 8c 24 20 01 	vmovdqa %ymm9,0x120(%rsp)
    3845:	00 00 
    3847:	c5 7d 6f ac 24 20 01 	vmovdqa 0x120(%rsp),%ymm13
    384e:	00 00 
    3850:	c4 42 7d 35 db       	vpmovzxdq %xmm11,%ymm11
    3855:	c4 62 7d 33 c8       	vpmovzxwd %xmm0,%ymm9
    385a:	c4 e3 7d 39 c0 01    	vextracti128 $0x1,%ymm0,%xmm0
    3860:	c4 c1 25 73 f3 30    	vpsllq $0x30,%ymm11,%ymm11
    3866:	c4 e2 7d 33 c0       	vpmovzxwd %xmm0,%ymm0
    386b:	c4 43 7d 39 ed 01    	vextracti128 $0x1,%ymm13,%xmm13
    3871:	c4 42 7d 35 ed       	vpmovzxdq %xmm13,%ymm13
    3876:	c4 c1 15 73 f5 38    	vpsllq $0x38,%ymm13,%ymm13
    387c:	c4 41 25 eb dd       	vpor   %ymm13,%ymm11,%ymm11
    3881:	c4 62 7d 35 ee       	vpmovzxdq %xmm6,%ymm13
    3886:	c4 e3 7d 39 f6 01    	vextracti128 $0x1,%ymm6,%xmm6
    388c:	c4 41 1d eb db       	vpor   %ymm11,%ymm12,%ymm11
    3891:	c4 43 7d 39 f4 01    	vextracti128 $0x1,%ymm14,%xmm12
    3897:	c4 e2 7d 35 f6       	vpmovzxdq %xmm6,%ymm6
    389c:	c4 c1 0d 73 f5 20    	vpsllq $0x20,%ymm13,%ymm14
    38a2:	c4 42 7d 35 e4       	vpmovzxdq %xmm12,%ymm12
    38a7:	c4 62 7d 35 ec       	vpmovzxdq %xmm4,%ymm13
    38ac:	c4 41 25 eb e4       	vpor   %ymm12,%ymm11,%ymm12
    38b1:	c5 cd 73 f6 20       	vpsllq $0x20,%ymm6,%ymm6
    38b6:	c4 e3 7d 39 e4 01    	vextracti128 $0x1,%ymm4,%xmm4
    38bc:	c5 7a 6f 98 20 ff ff 	vmovdqu -0xe0(%rax),%xmm11
    38c3:	ff 
    38c4:	c4 63 25 38 98 30 ff 	vinserti128 $0x1,-0xd0(%rax),%ymm11,%ymm11
    38cb:	ff ff 01 
    38ce:	c4 e2 7d 35 e4       	vpmovzxdq %xmm4,%ymm4
    38d3:	c5 dd 73 f4 28       	vpsllq $0x28,%ymm4,%ymm4
    38d8:	c4 41 1d ef e3       	vpxor  %ymm11,%ymm12,%ymm12
    38dd:	c4 c1 25 73 f5 28    	vpsllq $0x28,%ymm13,%ymm11
    38e3:	c5 cd eb f4          	vpor   %ymm4,%ymm6,%ymm6
    38e7:	c4 41 0d eb eb       	vpor   %ymm11,%ymm14,%ymm13
    38ec:	c4 e3 7d 39 ec 01    	vextracti128 $0x1,%ymm5,%xmm4
    38f2:	c4 62 7d 35 db       	vpmovzxdq %xmm3,%ymm11
    38f7:	c4 e3 7d 39 db 01    	vextracti128 $0x1,%ymm3,%xmm3
    38fd:	c4 62 7d 35 f5       	vpmovzxdq %xmm5,%ymm14
    3902:	c4 e2 7d 35 e4       	vpmovzxdq %xmm4,%ymm4
    3907:	c4 c1 25 73 f3 30    	vpsllq $0x30,%ymm11,%ymm11
    390d:	c4 c1 0d 73 f6 38    	vpsllq $0x38,%ymm14,%ymm14
    3913:	c4 e2 7d 35 db       	vpmovzxdq %xmm3,%ymm3
    3918:	c5 e5 73 f3 30       	vpsllq $0x30,%ymm3,%ymm3
    391d:	c5 dd 73 f4 38       	vpsllq $0x38,%ymm4,%ymm4
    3922:	c4 41 25 eb de       	vpor   %ymm14,%ymm11,%ymm11
    3927:	c5 e5 eb e4          	vpor   %ymm4,%ymm3,%ymm4
    392b:	c4 c2 7d 35 da       	vpmovzxdq %xmm10,%ymm3
    3930:	c4 41 15 eb db       	vpor   %ymm11,%ymm13,%ymm11
    3935:	c5 d5 73 f3 20       	vpsllq $0x20,%ymm3,%ymm5
    393a:	c4 62 7d 35 e9       	vpmovzxdq %xmm1,%ymm13
    393f:	c4 c2 7d 35 d8       	vpmovzxdq %xmm8,%ymm3
    3944:	c4 e3 7d 39 c9 01    	vextracti128 $0x1,%ymm1,%xmm1
    394a:	c4 43 7d 39 d2 01    	vextracti128 $0x1,%ymm10,%xmm10
    3950:	c4 43 7d 39 c0 01    	vextracti128 $0x1,%ymm8,%xmm8
    3956:	c5 cd eb e4          	vpor   %ymm4,%ymm6,%ymm4
    395a:	c4 42 7d 35 d2       	vpmovzxdq %xmm10,%ymm10
    395f:	c4 e2 7d 35 f1       	vpmovzxdq %xmm1,%ymm6
    3964:	c5 fa 6f 88 60 ff ff 	vmovdqu -0xa0(%rax),%xmm1
    396b:	ff 
    396c:	c4 42 7d 35 c0       	vpmovzxdq %xmm8,%ymm8
    3971:	c4 41 25 eb ed       	vpor   %ymm13,%ymm11,%ymm13
    3976:	c5 dd eb e6          	vpor   %ymm6,%ymm4,%ymm4
    397a:	c5 7a 6f 98 40 ff ff 	vmovdqu -0xc0(%rax),%xmm11
    3981:	ff 
    3982:	c4 c1 3d 73 f0 28    	vpsllq $0x28,%ymm8,%ymm8
    3988:	c4 c1 2d 73 f2 20    	vpsllq $0x20,%ymm10,%ymm10
    398e:	c4 63 25 38 98 50 ff 	vinserti128 $0x1,-0xb0(%rax),%ymm11,%ymm11
    3995:	ff ff 01 
    3998:	c4 e3 75 38 b0 70 ff 	vinserti128 $0x1,-0x90(%rax),%ymm1,%ymm6
    399f:	ff ff 01 
    39a2:	c5 f5 73 f3 28       	vpsllq $0x28,%ymm3,%ymm1
    39a7:	c4 41 2d eb d0       	vpor   %ymm8,%ymm10,%ymm10
    39ac:	c5 78 11 a0 20 ff ff 	vmovups %xmm12,-0xe0(%rax)
    39b3:	ff 
    39b4:	c5 d5 eb d9          	vpor   %ymm1,%ymm5,%ymm3
    39b8:	c4 43 7d 39 c8 01    	vextracti128 $0x1,%ymm9,%xmm8
    39be:	c4 e2 7d 35 cf       	vpmovzxdq %xmm7,%ymm1
    39c3:	c4 63 7d 39 a0 30 ff 	vextracti128 $0x1,%ymm12,-0xd0(%rax)
    39ca:	ff ff 01 
    39cd:	c4 c2 7d 35 e9       	vpmovzxdq %xmm9,%ymm5
    39d2:	c4 e3 7d 39 ff 01    	vextracti128 $0x1,%ymm7,%xmm7
    39d8:	c4 42 7d 35 c0       	vpmovzxdq %xmm8,%ymm8
    39dd:	c5 7d 6f 4c 24 60    	vmovdqa 0x60(%rsp),%ymm9
    39e3:	c5 d5 73 f5 38       	vpsllq $0x38,%ymm5,%ymm5
    39e8:	c5 f5 73 f1 30       	vpsllq $0x30,%ymm1,%ymm1
    39ed:	c4 e2 7d 35 ff       	vpmovzxdq %xmm7,%ymm7
    39f2:	c5 f5 eb cd          	vpor   %ymm5,%ymm1,%ymm1
    39f6:	c5 c5 73 f7 30       	vpsllq $0x30,%ymm7,%ymm7
    39fb:	c5 dd ef e6          	vpxor  %ymm6,%ymm4,%ymm4
    39ff:	c5 fd 6f b4 24 a0 00 	vmovdqa 0xa0(%rsp),%ymm6
    3a06:	00 00 
    3a08:	c4 c1 3d 73 f0 38    	vpsllq $0x38,%ymm8,%ymm8
    3a0e:	c5 e5 eb c9          	vpor   %ymm1,%ymm3,%ymm1
    3a12:	c4 e2 7d 35 da       	vpmovzxdq %xmm2,%ymm3
    3a17:	c5 f8 11 a0 60 ff ff 	vmovups %xmm4,-0xa0(%rax)
    3a1e:	ff 
    3a1f:	c4 41 45 eb c0       	vpor   %ymm8,%ymm7,%ymm8
    3a24:	c4 e3 7d 39 d2 01    	vextracti128 $0x1,%ymm2,%xmm2
    3a2a:	c5 f5 eb db          	vpor   %ymm3,%ymm1,%ymm3
    3a2e:	c5 fa 6f 48 80       	vmovdqu -0x80(%rax),%xmm1
    3a33:	c4 41 2d eb c0       	vpor   %ymm8,%ymm10,%ymm8
    3a38:	c4 e3 75 38 48 90 01 	vinserti128 $0x1,-0x70(%rax),%ymm1,%ymm1
    3a3f:	c4 62 7d 35 d2       	vpmovzxdq %xmm2,%ymm10
    3a44:	c5 fa 6f 50 a0       	vmovdqu -0x60(%rax),%xmm2
    3a49:	c4 41 3d eb c2       	vpor   %ymm10,%ymm8,%ymm8
    3a4e:	c4 41 15 ef db       	vpxor  %ymm11,%ymm13,%ymm11
    3a53:	c4 63 6d 38 50 b0 01 	vinserti128 $0x1,-0x50(%rax),%ymm2,%ymm10
    3a5a:	c5 fd 6f bc 24 e0 00 	vmovdqa 0xe0(%rsp),%ymm7
    3a61:	00 00 
    3a63:	c5 e5 ef c9          	vpxor  %ymm1,%ymm3,%ymm1
    3a67:	c4 e2 7d 35 de       	vpmovzxdq %xmm6,%ymm3
    3a6c:	c5 78 11 98 40 ff ff 	vmovups %xmm11,-0xc0(%rax)
    3a73:	ff 
    3a74:	c4 63 7d 39 98 50 ff 	vextracti128 $0x1,%ymm11,-0xb0(%rax)
    3a7b:	ff ff 01 
    3a7e:	c4 41 3d ef c2       	vpxor  %ymm10,%ymm8,%ymm8
    3a83:	c5 d5 73 f3 20       	vpsllq $0x20,%ymm3,%ymm5
    3a88:	c5 7d 6f 54 24 40    	vmovdqa 0x40(%rsp),%ymm10
    3a8e:	c4 c2 7d 35 d9       	vpmovzxdq %xmm9,%ymm3
    3a93:	c5 ed 73 f3 28       	vpsllq $0x28,%ymm3,%ymm2
    3a98:	c5 f8 11 48 80       	vmovups %xmm1,-0x80(%rax)
    3a9d:	c4 e3 7d 39 a0 70 ff 	vextracti128 $0x1,%ymm4,-0x90(%rax)
    3aa4:	ff ff 01 
    3aa7:	c4 e3 7d 39 48 90 01 	vextracti128 $0x1,%ymm1,-0x70(%rax)
    3aae:	c5 d5 eb da          	vpor   %ymm2,%ymm5,%ymm3
    3ab2:	c4 e2 7d 35 e8       	vpmovzxdq %xmm0,%ymm5
    3ab7:	c4 c2 7d 35 d2       	vpmovzxdq %xmm10,%ymm2
    3abc:	c5 78 11 40 a0       	vmovups %xmm8,-0x60(%rax)
    3ac1:	c5 d5 73 f5 38       	vpsllq $0x38,%ymm5,%ymm5
    3ac6:	c5 ed 73 f2 30       	vpsllq $0x30,%ymm2,%ymm2
    3acb:	c4 e3 7d 39 c0 01    	vextracti128 $0x1,%ymm0,%xmm0
    3ad1:	c4 63 7d 39 40 b0 01 	vextracti128 $0x1,%ymm8,-0x50(%rax)
    3ad8:	c5 ed eb d5          	vpor   %ymm5,%ymm2,%ymm2
    3adc:	c4 63 7d 39 cd 01    	vextracti128 $0x1,%ymm9,%xmm5
    3ae2:	c4 e2 7d 35 c0       	vpmovzxdq %xmm0,%ymm0
    3ae7:	c5 e5 eb d2          	vpor   %ymm2,%ymm3,%ymm2
    3aeb:	c4 e2 7d 35 df       	vpmovzxdq %xmm7,%ymm3
    3af0:	c4 e2 7d 35 ed       	vpmovzxdq %xmm5,%ymm5
    3af5:	c5 d5 73 f5 28       	vpsllq $0x28,%ymm5,%ymm5
    3afa:	c5 fd 73 f0 38       	vpsllq $0x38,%ymm0,%ymm0
    3aff:	c5 ed eb db          	vpor   %ymm3,%ymm2,%ymm3
    3b03:	c5 fa 6f 50 c0       	vmovdqu -0x40(%rax),%xmm2
    3b08:	c4 e3 6d 38 50 d0 01 	vinserti128 $0x1,-0x30(%rax),%ymm2,%ymm2
    3b0f:	c5 e5 ef d2          	vpxor  %ymm2,%ymm3,%ymm2
    3b13:	c4 e3 7d 39 f3 01    	vextracti128 $0x1,%ymm6,%xmm3
    3b19:	c4 e3 7d 39 fe 01    	vextracti128 $0x1,%ymm7,%xmm6
    3b1f:	c5 fa 6f 78 e0       	vmovdqu -0x20(%rax),%xmm7
    3b24:	c4 e2 7d 35 db       	vpmovzxdq %xmm3,%ymm3
    3b29:	c4 e2 7d 35 f6       	vpmovzxdq %xmm6,%ymm6
    3b2e:	c5 e5 73 f3 20       	vpsllq $0x20,%ymm3,%ymm3
    3b33:	c5 e5 eb dd          	vpor   %ymm5,%ymm3,%ymm3
    3b37:	c4 63 7d 39 d5 01    	vextracti128 $0x1,%ymm10,%xmm5
    3b3d:	c4 e2 7d 35 ed       	vpmovzxdq %xmm5,%ymm5
    3b42:	c5 d5 73 f5 30       	vpsllq $0x30,%ymm5,%ymm5
    3b47:	c5 d5 eb e8          	vpor   %ymm0,%ymm5,%ymm5
    3b4b:	c4 e3 45 38 40 f0 01 	vinserti128 $0x1,-0x10(%rax),%ymm7,%ymm0
    3b52:	c5 e5 eb dd          	vpor   %ymm5,%ymm3,%ymm3
    3b56:	c4 e2 7d 35 ac 24 c0 	vpmovzxdq 0xc0(%rsp),%ymm5
    3b5d:	00 00 00 
    3b60:	c5 e5 eb de          	vpor   %ymm6,%ymm3,%ymm3
    3b64:	c4 e2 7d 35 b4 24 20 	vpmovzxdq 0x120(%rsp),%ymm6
    3b6b:	01 00 00 
    3b6e:	c5 c5 73 f5 20       	vpsllq $0x20,%ymm5,%ymm7
    3b73:	c5 e5 ef d8          	vpxor  %ymm0,%ymm3,%ymm3
    3b77:	c4 e2 7d 35 ac 24 80 	vpmovzxdq 0x80(%rsp),%ymm5
    3b7e:	00 00 00 
    3b81:	c5 cd 73 f6 38       	vpsllq $0x38,%ymm6,%ymm6
    3b86:	c5 fd 73 f5 28       	vpsllq $0x28,%ymm5,%ymm0
    3b8b:	c5 c5 eb e8          	vpor   %ymm0,%ymm7,%ymm5
    3b8f:	c5 fa 6f b8 00 ff ff 	vmovdqu -0x100(%rax),%xmm7
    3b96:	ff 
    3b97:	c4 e2 7d 35 84 24 40 	vpmovzxdq 0x140(%rsp),%ymm0
    3b9e:	01 00 00 
    3ba1:	c5 fd 73 f0 30       	vpsllq $0x30,%ymm0,%ymm0
    3ba6:	c5 fd eb c6          	vpor   %ymm6,%ymm0,%ymm0
    3baa:	c5 d5 eb c0          	vpor   %ymm0,%ymm5,%ymm0
    3bae:	c4 e2 7d 35 ac 24 00 	vpmovzxdq 0x100(%rsp),%ymm5
    3bb5:	01 00 00 
    3bb8:	c5 fd eb c5          	vpor   %ymm5,%ymm0,%ymm0
    3bbc:	c4 e3 45 38 a8 10 ff 	vinserti128 $0x1,-0xf0(%rax),%ymm7,%ymm5
    3bc3:	ff ff 01 
    3bc6:	c5 fd ef c5          	vpxor  %ymm5,%ymm0,%ymm0
    3bca:	c5 f8 11 80 00 ff ff 	vmovups %xmm0,-0x100(%rax)
    3bd1:	ff 
    3bd2:	c4 e3 7d 39 80 10 ff 	vextracti128 $0x1,%ymm0,-0xf0(%rax)
    3bd9:	ff ff 01 
    3bdc:	c5 f8 11 50 c0       	vmovups %xmm2,-0x40(%rax)
    3be1:	c4 e3 7d 39 50 d0 01 	vextracti128 $0x1,%ymm2,-0x30(%rax)
    3be8:	c4 e3 7d 39 58 f0 01 	vextracti128 $0x1,%ymm3,-0x10(%rax)
    3bef:	c5 f8 11 58 e0       	vmovups %xmm3,-0x20(%rax)
    3bf4:	48 39 f2             	cmp    %rsi,%rdx
    3bf7:	0f 85 93 f7 ff ff    	jne    3390 <keccak_absorb+0xe0>
    3bfd:	48 8b 74 24 20       	mov    0x20(%rsp),%rsi
    3c02:	49 39 f6             	cmp    %rsi,%r14
    3c05:	74 6b                	je     3c72 <keccak_absorb+0x9c2>
    3c07:	48 8b 44 24 30       	mov    0x30(%rsp),%rax
    3c0c:	49 8d 14 04          	lea    (%r12,%rax,1),%rdx
    3c10:	0f b6 42 01          	movzbl 0x1(%rdx),%eax
    3c14:	0f b6 4a 02          	movzbl 0x2(%rdx),%ecx
    3c18:	48 83 c2 08          	add    $0x8,%rdx
    3c1c:	48 c1 e1 10          	shl    $0x10,%rcx
    3c20:	48 c1 e0 08          	shl    $0x8,%rax
    3c24:	48 09 c8             	or     %rcx,%rax
    3c27:	0f b6 4a f8          	movzbl -0x8(%rdx),%ecx
    3c2b:	48 09 c8             	or     %rcx,%rax
    3c2e:	0f b6 4a fb          	movzbl -0x5(%rdx),%ecx
    3c32:	48 c1 e1 18          	shl    $0x18,%rcx
    3c36:	48 09 c8             	or     %rcx,%rax
    3c39:	0f b6 4a fc          	movzbl -0x4(%rdx),%ecx
    3c3d:	48 c1 e1 20          	shl    $0x20,%rcx
    3c41:	48 09 c8             	or     %rcx,%rax
    3c44:	0f b6 4a fd          	movzbl -0x3(%rdx),%ecx
    3c48:	48 c1 e1 28          	shl    $0x28,%rcx
    3c4c:	48 09 c1             	or     %rax,%rcx
    3c4f:	0f b6 42 fe          	movzbl -0x2(%rdx),%eax
    3c53:	48 c1 e0 30          	shl    $0x30,%rax
    3c57:	48 09 c1             	or     %rax,%rcx
    3c5a:	0f b6 42 ff          	movzbl -0x1(%rdx),%eax
    3c5e:	48 c1 e0 38          	shl    $0x38,%rax
    3c62:	48 09 c8             	or     %rcx,%rax
    3c65:	49 31 04 f7          	xor    %rax,(%r15,%rsi,8)
    3c69:	48 83 c6 01          	add    $0x1,%rsi
    3c6d:	49 39 f6             	cmp    %rsi,%r14
    3c70:	77 9e                	ja     3c10 <keccak_absorb+0x960>
    3c72:	4c 89 ff             	mov    %r15,%rdi
    3c75:	c5 f8 77             	vzeroupper 
    3c78:	e8 93 d9 ff ff       	callq  1610 <KeccakF1600_StatePermute>
    3c7d:	4c 29 eb             	sub    %r13,%rbx
    3c80:	4d 01 ec             	add    %r13,%r12
    3c83:	4c 39 eb             	cmp    %r13,%rbx
    3c86:	c5 7d 6f 3d f2 b4 05 	vmovdqa 0x5b4f2(%rip),%ymm15        # 5f180 <KeccakF_RoundConstants+0xe0>
    3c8d:	00 
    3c8e:	0f 83 bc f6 ff ff    	jae    3350 <keccak_absorb+0xa0>
    3c94:	4c 89 e0             	mov    %r12,%rax
    3c97:	4d 89 ec             	mov    %r13,%r12
    3c9a:	49 89 de             	mov    %rbx,%r14
    3c9d:	49 89 c5             	mov    %rax,%r13
    3ca0:	4d 85 e4             	test   %r12,%r12
    3ca3:	0f 84 dd 09 00 00    	je     4686 <keccak_absorb+0x13d6>
    3ca9:	c5 f8 77             	vzeroupper 
    3cac:	4c 8d 94 24 60 01 00 	lea    0x160(%rsp),%r10
    3cb3:	00 
    3cb4:	4c 89 e2             	mov    %r12,%rdx
    3cb7:	31 f6                	xor    %esi,%esi
    3cb9:	4c 89 d7             	mov    %r10,%rdi
    3cbc:	e8 6f d3 ff ff       	callq  1030 <memset@plt>
    3cc1:	49 89 c2             	mov    %rax,%r10
    3cc4:	4d 85 f6             	test   %r14,%r14
    3cc7:	74 1d                	je     3ce6 <keccak_absorb+0xa36>
    3cc9:	4d 85 f6             	test   %r14,%r14
    3ccc:	b8 01 00 00 00       	mov    $0x1,%eax
    3cd1:	4c 89 d7             	mov    %r10,%rdi
    3cd4:	4c 89 ee             	mov    %r13,%rsi
    3cd7:	4c 0f 44 f0          	cmove  %rax,%r14
    3cdb:	4c 89 f2             	mov    %r14,%rdx
    3cde:	e8 2d d4 ff ff       	callq  1110 <memcpy@plt>
    3ce3:	49 89 c2             	mov    %rax,%r10
    3ce6:	0f b6 44 24 14       	movzbl 0x14(%rsp),%eax
    3ceb:	8b 7c 24 38          	mov    0x38(%rsp),%edi
    3cef:	42 88 84 34 60 01 00 	mov    %al,0x160(%rsp,%r14,1)
    3cf6:	00 
    3cf7:	8d 47 ff             	lea    -0x1(%rdi),%eax
    3cfa:	80 8c 04 60 01 00 00 	orb    $0x80,0x160(%rsp,%rax,1)
    3d01:	80 
    3d02:	89 f8                	mov    %edi,%eax
    3d04:	c1 e8 03             	shr    $0x3,%eax
    3d07:	89 c6                	mov    %eax,%esi
    3d09:	0f 84 d3 08 00 00    	je     45e2 <keccak_absorb+0x1332>
    3d0f:	48 8d 46 ff          	lea    -0x1(%rsi),%rax
    3d13:	48 83 f8 1e          	cmp    $0x1e,%rax
    3d17:	0f 86 7e 09 00 00    	jbe    469b <keccak_absorb+0x13eb>
    3d1d:	48 89 f1             	mov    %rsi,%rcx
    3d20:	c5 7d 6f 3d 58 b4 05 	vmovdqa 0x5b458(%rip),%ymm15        # 5f180 <KeccakF_RoundConstants+0xe0>
    3d27:	00 
    3d28:	4c 89 d2             	mov    %r10,%rdx
    3d2b:	4c 89 f8             	mov    %r15,%rax
    3d2e:	48 c1 e9 05          	shr    $0x5,%rcx
    3d32:	48 c1 e1 08          	shl    $0x8,%rcx
    3d36:	4c 01 f9             	add    %r15,%rcx
    3d39:	c5 85 db 4a 20       	vpand  0x20(%rdx),%ymm15,%ymm1
    3d3e:	c5 fd 6f 22          	vmovdqa (%rdx),%ymm4
    3d42:	48 05 00 01 00 00    	add    $0x100,%rax
    3d48:	48 81 c2 00 01 00 00 	add    $0x100,%rdx
    3d4f:	c5 85 db 82 00 ff ff 	vpand  -0x100(%rdx),%ymm15,%ymm0
    3d56:	ff 
    3d57:	c5 85 db aa 40 ff ff 	vpand  -0xc0(%rdx),%ymm15,%ymm5
    3d5e:	ff 
    3d5f:	c5 85 db 5a 80       	vpand  -0x80(%rdx),%ymm15,%ymm3
    3d64:	c5 05 db 4a c0       	vpand  -0x40(%rdx),%ymm15,%ymm9
    3d69:	c5 fd 67 c1          	vpackuswb %ymm1,%ymm0,%ymm0
    3d6d:	c5 f5 71 d4 08       	vpsrlw $0x8,%ymm4,%ymm1
    3d72:	c5 fd 6f a2 20 ff ff 	vmovdqa -0xe0(%rdx),%ymm4
    3d79:	ff 
    3d7a:	c4 e3 fd 00 c0 d8    	vpermq $0xd8,%ymm0,%ymm0
    3d80:	c5 ed 71 d4 08       	vpsrlw $0x8,%ymm4,%ymm2
    3d85:	c5 fd 6f a2 40 ff ff 	vmovdqa -0xc0(%rdx),%ymm4
    3d8c:	ff 
    3d8d:	c5 f5 67 ca          	vpackuswb %ymm2,%ymm1,%ymm1
    3d91:	c5 85 db 92 60 ff ff 	vpand  -0xa0(%rdx),%ymm15,%ymm2
    3d98:	ff 
    3d99:	c5 cd 71 d4 08       	vpsrlw $0x8,%ymm4,%ymm6
    3d9e:	c5 fd 6f a2 60 ff ff 	vmovdqa -0xa0(%rdx),%ymm4
    3da5:	ff 
    3da6:	c4 e3 fd 00 c9 d8    	vpermq $0xd8,%ymm1,%ymm1
    3dac:	c5 d5 67 ea          	vpackuswb %ymm2,%ymm5,%ymm5
    3db0:	c5 ed 71 d4 08       	vpsrlw $0x8,%ymm4,%ymm2
    3db5:	c5 fd 6f 62 80       	vmovdqa -0x80(%rdx),%ymm4
    3dba:	c4 e3 fd 00 ed d8    	vpermq $0xd8,%ymm5,%ymm5
    3dc0:	c5 cd 67 f2          	vpackuswb %ymm2,%ymm6,%ymm6
    3dc4:	c5 85 db 52 a0       	vpand  -0x60(%rdx),%ymm15,%ymm2
    3dc9:	c5 85 db fd          	vpand  %ymm5,%ymm15,%ymm7
    3dcd:	c5 d5 71 d5 08       	vpsrlw $0x8,%ymm5,%ymm5
    3dd2:	c4 e3 fd 00 f6 d8    	vpermq $0xd8,%ymm6,%ymm6
    3dd8:	c5 e5 67 da          	vpackuswb %ymm2,%ymm3,%ymm3
    3ddc:	c5 ed 71 d4 08       	vpsrlw $0x8,%ymm4,%ymm2
    3de1:	c5 fd 6f 62 a0       	vmovdqa -0x60(%rdx),%ymm4
    3de6:	c4 e3 fd 00 db d8    	vpermq $0xd8,%ymm3,%ymm3
    3dec:	c5 dd 71 d4 08       	vpsrlw $0x8,%ymm4,%ymm4
    3df1:	c5 ed 67 d4          	vpackuswb %ymm4,%ymm2,%ymm2
    3df5:	c5 85 db 62 e0       	vpand  -0x20(%rdx),%ymm15,%ymm4
    3dfa:	c4 e3 fd 00 d2 d8    	vpermq $0xd8,%ymm2,%ymm2
    3e00:	c5 35 67 cc          	vpackuswb %ymm4,%ymm9,%ymm9
    3e04:	c5 fd 6f 62 c0       	vmovdqa -0x40(%rdx),%ymm4
    3e09:	c4 43 fd 00 c9 d8    	vpermq $0xd8,%ymm9,%ymm9
    3e0f:	c5 bd 71 d4 08       	vpsrlw $0x8,%ymm4,%ymm8
    3e14:	c5 fd 6f 62 e0       	vmovdqa -0x20(%rdx),%ymm4
    3e19:	c5 dd 71 d4 08       	vpsrlw $0x8,%ymm4,%ymm4
    3e1e:	c5 3d 67 c4          	vpackuswb %ymm4,%ymm8,%ymm8
    3e22:	c5 85 db e0          	vpand  %ymm0,%ymm15,%ymm4
    3e26:	c5 fd 71 d0 08       	vpsrlw $0x8,%ymm0,%ymm0
    3e2b:	c5 dd 67 e7          	vpackuswb %ymm7,%ymm4,%ymm4
    3e2f:	c5 85 db fb          	vpand  %ymm3,%ymm15,%ymm7
    3e33:	c5 fd 67 c5          	vpackuswb %ymm5,%ymm0,%ymm0
    3e37:	c4 c1 05 db e9       	vpand  %ymm9,%ymm15,%ymm5
    3e3c:	c4 43 fd 00 c0 d8    	vpermq $0xd8,%ymm8,%ymm8
    3e42:	c5 c5 67 fd          	vpackuswb %ymm5,%ymm7,%ymm7
    3e46:	c4 c1 35 71 d1 08    	vpsrlw $0x8,%ymm9,%ymm9
    3e4c:	c4 e3 fd 00 e4 d8    	vpermq $0xd8,%ymm4,%ymm4
    3e52:	c5 d5 71 d3 08       	vpsrlw $0x8,%ymm3,%ymm5
    3e57:	c5 85 db d9          	vpand  %ymm1,%ymm15,%ymm3
    3e5b:	c4 e3 fd 00 ff d8    	vpermq $0xd8,%ymm7,%ymm7
    3e61:	c4 c1 55 67 e9       	vpackuswb %ymm9,%ymm5,%ymm5
    3e66:	c5 f5 71 d1 08       	vpsrlw $0x8,%ymm1,%ymm1
    3e6b:	c5 05 db ce          	vpand  %ymm6,%ymm15,%ymm9
    3e6f:	c5 cd 71 d6 08       	vpsrlw $0x8,%ymm6,%ymm6
    3e74:	c4 c1 65 67 d9       	vpackuswb %ymm9,%ymm3,%ymm3
    3e79:	c4 41 05 db c8       	vpand  %ymm8,%ymm15,%ymm9
    3e7e:	c5 f5 67 ce          	vpackuswb %ymm6,%ymm1,%ymm1
    3e82:	c5 85 db f2          	vpand  %ymm2,%ymm15,%ymm6
    3e86:	c4 e3 fd 00 db d8    	vpermq $0xd8,%ymm3,%ymm3
    3e8c:	c4 c1 4d 67 f1       	vpackuswb %ymm9,%ymm6,%ymm6
    3e91:	c4 c1 3d 71 d0 08    	vpsrlw $0x8,%ymm8,%ymm8
    3e97:	c5 05 db cc          	vpand  %ymm4,%ymm15,%ymm9
    3e9b:	c5 ed 71 d2 08       	vpsrlw $0x8,%ymm2,%ymm2
    3ea0:	c4 e3 fd 00 f6 d8    	vpermq $0xd8,%ymm6,%ymm6
    3ea6:	c4 e3 fd 00 c0 d8    	vpermq $0xd8,%ymm0,%ymm0
    3eac:	c4 c1 6d 67 d0       	vpackuswb %ymm8,%ymm2,%ymm2
    3eb1:	c5 dd 71 d4 08       	vpsrlw $0x8,%ymm4,%ymm4
    3eb6:	c5 05 db c7          	vpand  %ymm7,%ymm15,%ymm8
    3eba:	c5 c5 71 d7 08       	vpsrlw $0x8,%ymm7,%ymm7
    3ebf:	c4 e3 fd 00 ed d8    	vpermq $0xd8,%ymm5,%ymm5
    3ec5:	c4 41 35 67 c8       	vpackuswb %ymm8,%ymm9,%ymm9
    3eca:	c5 dd 67 e7          	vpackuswb %ymm7,%ymm4,%ymm4
    3ece:	c5 05 db c6          	vpand  %ymm6,%ymm15,%ymm8
    3ed2:	c5 85 db fb          	vpand  %ymm3,%ymm15,%ymm7
    3ed6:	c5 cd 71 d6 08       	vpsrlw $0x8,%ymm6,%ymm6
    3edb:	c5 e5 71 d3 08       	vpsrlw $0x8,%ymm3,%ymm3
    3ee0:	c4 c1 45 67 f8       	vpackuswb %ymm8,%ymm7,%ymm7
    3ee5:	c5 e5 67 de          	vpackuswb %ymm6,%ymm3,%ymm3
    3ee9:	c5 05 db c5          	vpand  %ymm5,%ymm15,%ymm8
    3eed:	c5 85 db f0          	vpand  %ymm0,%ymm15,%ymm6
    3ef1:	c4 e3 fd 00 c9 d8    	vpermq $0xd8,%ymm1,%ymm1
    3ef7:	c4 e3 fd 00 d2 d8    	vpermq $0xd8,%ymm2,%ymm2
    3efd:	c4 c1 4d 67 f0       	vpackuswb %ymm8,%ymm6,%ymm6
    3f02:	c5 d5 71 d5 08       	vpsrlw $0x8,%ymm5,%ymm5
    3f07:	c5 fd 71 d0 08       	vpsrlw $0x8,%ymm0,%ymm0
    3f0c:	c5 05 db c2          	vpand  %ymm2,%ymm15,%ymm8
    3f10:	c4 e3 fd 00 ff d8    	vpermq $0xd8,%ymm7,%ymm7
    3f16:	c4 e3 fd 00 f6 d8    	vpermq $0xd8,%ymm6,%ymm6
    3f1c:	c5 fd 67 c5          	vpackuswb %ymm5,%ymm0,%ymm0
    3f20:	c5 85 db e9          	vpand  %ymm1,%ymm15,%ymm5
    3f24:	c4 62 7d 30 e7       	vpmovzxbw %xmm7,%ymm12
    3f29:	c4 43 fd 00 c9 d8    	vpermq $0xd8,%ymm9,%ymm9
    3f2f:	c4 c1 55 67 e8       	vpackuswb %ymm8,%ymm5,%ymm5
    3f34:	c5 bd 71 d1 08       	vpsrlw $0x8,%ymm1,%ymm8
    3f39:	c4 e2 7d 30 ce       	vpmovzxbw %xmm6,%ymm1
    3f3e:	c4 c1 1d 71 f4 08    	vpsllw $0x8,%ymm12,%ymm12
    3f44:	c4 e3 fd 00 ed d8    	vpermq $0xd8,%ymm5,%ymm5
    3f4a:	c4 62 7d 33 d1       	vpmovzxwd %xmm1,%ymm10
    3f4f:	c5 ed 71 d2 08       	vpsrlw $0x8,%ymm2,%ymm2
    3f54:	c4 42 7d 33 ec       	vpmovzxwd %xmm12,%ymm13
    3f59:	c4 42 7d 30 d9       	vpmovzxbw %xmm9,%ymm11
    3f5e:	c5 3d 67 c2          	vpackuswb %ymm2,%ymm8,%ymm8
    3f62:	c4 c1 2d 72 f2 10    	vpslld $0x10,%ymm10,%ymm10
    3f68:	c4 e3 fd 00 e4 d8    	vpermq $0xd8,%ymm4,%ymm4
    3f6e:	c4 e2 7d 30 d5       	vpmovzxbw %xmm5,%ymm2
    3f73:	c4 41 2d eb d5       	vpor   %ymm13,%ymm10,%ymm10
    3f78:	c4 e3 fd 00 db d8    	vpermq $0xd8,%ymm3,%ymm3
    3f7e:	c4 62 7d 33 ea       	vpmovzxwd %xmm2,%ymm13
    3f83:	c4 42 7d 33 f3       	vpmovzxwd %xmm11,%ymm14
    3f88:	c4 e3 fd 00 c0 d8    	vpermq $0xd8,%ymm0,%ymm0
    3f8e:	c4 c1 15 72 f5 18    	vpslld $0x18,%ymm13,%ymm13
    3f94:	c4 e3 7d 39 c9 01    	vextracti128 $0x1,%ymm1,%xmm1
    3f9a:	c4 43 fd 00 c0 d8    	vpermq $0xd8,%ymm8,%ymm8
    3fa0:	c4 41 15 eb ee       	vpor   %ymm14,%ymm13,%ymm13
    3fa5:	c4 e2 7d 33 c9       	vpmovzxwd %xmm1,%ymm1
    3faa:	c4 e3 7d 39 d2 01    	vextracti128 $0x1,%ymm2,%xmm2
    3fb0:	c4 41 2d eb f5       	vpor   %ymm13,%ymm10,%ymm14
    3fb5:	c4 43 7d 39 e2 01    	vextracti128 $0x1,%ymm12,%xmm10
    3fbb:	c4 43 7d 39 db 01    	vextracti128 $0x1,%ymm11,%xmm11
    3fc1:	c5 f5 72 f1 10       	vpslld $0x10,%ymm1,%ymm1
    3fc6:	c4 42 7d 33 d2       	vpmovzxwd %xmm10,%ymm10
    3fcb:	c4 e3 7d 39 ff 01    	vextracti128 $0x1,%ymm7,%xmm7
    3fd1:	c5 7d 7f 74 24 60    	vmovdqa %ymm14,0x60(%rsp)
    3fd7:	c4 41 75 eb d2       	vpor   %ymm10,%ymm1,%ymm10
    3fdc:	c4 e2 7d 33 ca       	vpmovzxwd %xmm2,%ymm1
    3fe1:	c4 e3 7d 39 f6 01    	vextracti128 $0x1,%ymm6,%xmm6
    3fe7:	c4 c2 7d 33 d3       	vpmovzxwd %xmm11,%ymm2
    3fec:	c4 e2 7d 30 f6       	vpmovzxbw %xmm6,%ymm6
    3ff1:	c4 e2 7d 30 ff       	vpmovzxbw %xmm7,%ymm7
    3ff6:	c5 f5 72 f1 18       	vpslld $0x18,%ymm1,%ymm1
    3ffb:	c5 c5 71 f7 08       	vpsllw $0x8,%ymm7,%ymm7
    4000:	c4 e3 7d 39 ed 01    	vextracti128 $0x1,%ymm5,%xmm5
    4006:	c5 f5 eb ca          	vpor   %ymm2,%ymm1,%ymm1
    400a:	c4 e2 7d 33 d6       	vpmovzxwd %xmm6,%ymm2
    400f:	c4 e2 7d 30 ed       	vpmovzxbw %xmm5,%ymm5
    4014:	c5 ad eb c9          	vpor   %ymm1,%ymm10,%ymm1
    4018:	c5 ed 72 f2 10       	vpslld $0x10,%ymm2,%ymm2
    401d:	c4 62 7d 33 d7       	vpmovzxwd %xmm7,%ymm10
    4022:	c4 43 7d 39 c9 01    	vextracti128 $0x1,%ymm9,%xmm9
    4028:	c4 e3 7d 39 f6 01    	vextracti128 $0x1,%ymm6,%xmm6
    402e:	c4 41 6d eb d2       	vpor   %ymm10,%ymm2,%ymm10
    4033:	c4 42 7d 30 c9       	vpmovzxbw %xmm9,%ymm9
    4038:	c4 e2 7d 33 d5       	vpmovzxwd %xmm5,%ymm2
    403d:	c4 e2 7d 33 f6       	vpmovzxwd %xmm6,%ymm6
    4042:	c4 e3 7d 39 ff 01    	vextracti128 $0x1,%ymm7,%xmm7
    4048:	c4 e3 7d 39 ed 01    	vextracti128 $0x1,%ymm5,%xmm5
    404e:	c4 42 7d 33 d9       	vpmovzxwd %xmm9,%ymm11
    4053:	c4 e2 7d 33 ff       	vpmovzxwd %xmm7,%ymm7
    4058:	c5 cd 72 f6 10       	vpslld $0x10,%ymm6,%ymm6
    405d:	c4 e2 7d 33 ed       	vpmovzxwd %xmm5,%ymm5
    4062:	c4 43 7d 39 c9 01    	vextracti128 $0x1,%ymm9,%xmm9
    4068:	c5 d5 72 f5 18       	vpslld $0x18,%ymm5,%ymm5
    406d:	c5 cd eb f7          	vpor   %ymm7,%ymm6,%ymm6
    4071:	c4 c2 7d 33 f9       	vpmovzxwd %xmm9,%ymm7
    4076:	c5 ed 72 f2 18       	vpslld $0x18,%ymm2,%ymm2
    407b:	c5 d5 eb ef          	vpor   %ymm7,%ymm5,%ymm5
    407f:	c4 c1 6d eb d3       	vpor   %ymm11,%ymm2,%ymm2
    4084:	c5 cd eb fd          	vpor   %ymm5,%ymm6,%ymm7
    4088:	c4 e2 7d 30 f4       	vpmovzxbw %xmm4,%ymm6
    408d:	c4 e3 7d 39 e4 01    	vextracti128 $0x1,%ymm4,%xmm4
    4093:	c4 e2 7d 30 ec       	vpmovzxbw %xmm4,%ymm5
    4098:	c4 62 7d 33 ee       	vpmovzxwd %xmm6,%ymm13
    409d:	c4 e3 7d 39 f6 01    	vextracti128 $0x1,%ymm6,%xmm6
    40a3:	c5 fd 7f bc 24 80 00 	vmovdqa %ymm7,0x80(%rsp)
    40aa:	00 00 
    40ac:	c4 62 7d 33 cd       	vpmovzxwd %xmm5,%ymm9
    40b1:	c4 e3 7d 39 ed 01    	vextracti128 $0x1,%ymm5,%xmm5
    40b7:	c4 e2 7d 33 e6       	vpmovzxwd %xmm6,%ymm4
    40bc:	c5 7d 7f ac 24 a0 00 	vmovdqa %ymm13,0xa0(%rsp)
    40c3:	00 00 
    40c5:	c4 e2 7d 33 f5       	vpmovzxwd %xmm5,%ymm6
    40ca:	c4 e2 7d 30 eb       	vpmovzxbw %xmm3,%ymm5
    40cf:	c4 e3 7d 39 db 01    	vextracti128 $0x1,%ymm3,%xmm3
    40d5:	c4 e2 7d 30 db       	vpmovzxbw %xmm3,%ymm3
    40da:	c5 ad eb d2          	vpor   %ymm2,%ymm10,%ymm2
    40de:	c4 62 7d 33 e5       	vpmovzxwd %xmm5,%ymm12
    40e3:	c5 fd 7f b4 24 c0 00 	vmovdqa %ymm6,0xc0(%rsp)
    40ea:	00 00 
    40ec:	c4 e2 7d 33 fb       	vpmovzxwd %xmm3,%ymm7
    40f1:	c4 e3 7d 39 db 01    	vextracti128 $0x1,%ymm3,%xmm3
    40f7:	c4 e3 7d 39 ed 01    	vextracti128 $0x1,%ymm5,%xmm5
    40fd:	c5 7d 7f a4 24 e0 00 	vmovdqa %ymm12,0xe0(%rsp)
    4104:	00 00 
    4106:	c4 62 7d 33 d3       	vpmovzxwd %xmm3,%ymm10
    410b:	c4 e2 7d 30 d8       	vpmovzxbw %xmm0,%ymm3
    4110:	c4 e2 7d 33 f5       	vpmovzxwd %xmm5,%ymm6
    4115:	c4 e2 7d 33 eb       	vpmovzxwd %xmm3,%ymm5
    411a:	c4 43 7d 39 e4 01    	vextracti128 $0x1,%ymm12,%xmm12
    4120:	c4 e3 7d 39 db 01    	vextracti128 $0x1,%ymm3,%xmm3
    4126:	c5 7d 7f 94 24 00 01 	vmovdqa %ymm10,0x100(%rsp)
    412d:	00 00 
    412f:	c4 42 7d 35 e4       	vpmovzxdq %xmm12,%ymm12
    4134:	c4 e2 7d 33 db       	vpmovzxwd %xmm3,%ymm3
    4139:	c5 fd 7f ac 24 40 01 	vmovdqa %ymm5,0x140(%rsp)
    4140:	00 00 
    4142:	c4 c2 7d 30 e8       	vpmovzxbw %xmm8,%ymm5
    4147:	c4 43 7d 39 c0 01    	vextracti128 $0x1,%ymm8,%xmm8
    414d:	c4 c1 1d 73 f4 28    	vpsllq $0x28,%ymm12,%ymm12
    4153:	c4 e3 7d 39 c0 01    	vextracti128 $0x1,%ymm0,%xmm0
    4159:	c4 42 7d 30 d8       	vpmovzxbw %xmm8,%ymm11
    415e:	c4 62 7d 33 c5       	vpmovzxwd %xmm5,%ymm8
    4163:	c4 e3 7d 39 ed 01    	vextracti128 $0x1,%ymm5,%xmm5
    4169:	c5 7d 7f 84 24 20 01 	vmovdqa %ymm8,0x120(%rsp)
    4170:	00 00 
    4172:	c4 42 7d 33 c3       	vpmovzxwd %xmm11,%ymm8
    4177:	c4 43 7d 39 db 01    	vextracti128 $0x1,%ymm11,%xmm11
    417d:	c4 e2 7d 33 ed       	vpmovzxwd %xmm5,%ymm5
    4182:	c4 42 7d 33 db       	vpmovzxwd %xmm11,%ymm11
    4187:	c4 e2 7d 30 c0       	vpmovzxbw %xmm0,%ymm0
    418c:	c5 7d 7f 5c 24 40    	vmovdqa %ymm11,0x40(%rsp)
    4192:	c4 43 7d 39 eb 01    	vextracti128 $0x1,%ymm13,%xmm11
    4198:	c4 62 7d 33 d0       	vpmovzxwd %xmm0,%ymm10
    419d:	c5 7d 6f ac 24 20 01 	vmovdqa 0x120(%rsp),%ymm13
    41a4:	00 00 
    41a6:	c4 42 7d 35 db       	vpmovzxdq %xmm11,%ymm11
    41ab:	c4 e3 7d 39 c0 01    	vextracti128 $0x1,%ymm0,%xmm0
    41b1:	c4 c1 25 73 f3 20    	vpsllq $0x20,%ymm11,%ymm11
    41b7:	c4 43 7d 39 ed 01    	vextracti128 $0x1,%ymm13,%xmm13
    41bd:	c4 e2 7d 33 c0       	vpmovzxwd %xmm0,%ymm0
    41c2:	c4 41 1d eb e3       	vpor   %ymm11,%ymm12,%ymm12
    41c7:	c4 42 7d 35 ed       	vpmovzxdq %xmm13,%ymm13
    41cc:	c5 7d 6f 9c 24 40 01 	vmovdqa 0x140(%rsp),%ymm11
    41d3:	00 00 
    41d5:	c4 c1 15 73 f5 38    	vpsllq $0x38,%ymm13,%ymm13
    41db:	c4 43 7d 39 db 01    	vextracti128 $0x1,%ymm11,%xmm11
    41e1:	c4 42 7d 35 db       	vpmovzxdq %xmm11,%ymm11
    41e6:	c4 c1 25 73 f3 30    	vpsllq $0x30,%ymm11,%ymm11
    41ec:	c4 41 25 eb dd       	vpor   %ymm13,%ymm11,%ymm11
    41f1:	c4 62 7d 35 ee       	vpmovzxdq %xmm6,%ymm13
    41f6:	c4 e3 7d 39 f6 01    	vextracti128 $0x1,%ymm6,%xmm6
    41fc:	c4 41 1d eb db       	vpor   %ymm11,%ymm12,%ymm11
    4201:	c4 43 7d 39 f4 01    	vextracti128 $0x1,%ymm14,%xmm12
    4207:	c4 62 7d 35 f5       	vpmovzxdq %xmm5,%ymm14
    420c:	c4 42 7d 35 e4       	vpmovzxdq %xmm12,%ymm12
    4211:	c4 c1 15 73 f5 28    	vpsllq $0x28,%ymm13,%ymm13
    4217:	c4 e3 7d 39 ed 01    	vextracti128 $0x1,%ymm5,%xmm5
    421d:	c4 41 25 eb e4       	vpor   %ymm12,%ymm11,%ymm12
    4222:	c4 c1 0d 73 f6 38    	vpsllq $0x38,%ymm14,%ymm14
    4228:	c4 e2 7d 35 f6       	vpmovzxdq %xmm6,%ymm6
    422d:	c5 7a 6f 98 20 ff ff 	vmovdqu -0xe0(%rax),%xmm11
    4234:	ff 
    4235:	c4 63 25 38 98 30 ff 	vinserti128 $0x1,-0xd0(%rax),%ymm11,%ymm11
    423c:	ff ff 01 
    423f:	c5 cd 73 f6 28       	vpsllq $0x28,%ymm6,%ymm6
    4244:	c4 e2 7d 35 ed       	vpmovzxdq %xmm5,%ymm5
    4249:	c5 d5 73 f5 38       	vpsllq $0x38,%ymm5,%ymm5
    424e:	c4 41 1d ef e3       	vpxor  %ymm11,%ymm12,%ymm12
    4253:	c4 62 7d 35 dc       	vpmovzxdq %xmm4,%ymm11
    4258:	c4 e3 7d 39 e4 01    	vextracti128 $0x1,%ymm4,%xmm4
    425e:	c4 c1 25 73 f3 20    	vpsllq $0x20,%ymm11,%ymm11
    4264:	c4 e2 7d 35 e4       	vpmovzxdq %xmm4,%ymm4
    4269:	c4 41 15 eb eb       	vpor   %ymm11,%ymm13,%ymm13
    426e:	c5 dd 73 f4 20       	vpsllq $0x20,%ymm4,%ymm4
    4273:	c4 62 7d 35 db       	vpmovzxdq %xmm3,%ymm11
    4278:	c4 e3 7d 39 db 01    	vextracti128 $0x1,%ymm3,%xmm3
    427e:	c4 c1 25 73 f3 30    	vpsllq $0x30,%ymm11,%ymm11
    4284:	c5 cd eb e4          	vpor   %ymm4,%ymm6,%ymm4
    4288:	c4 e2 7d 35 db       	vpmovzxdq %xmm3,%ymm3
    428d:	c4 41 25 eb de       	vpor   %ymm14,%ymm11,%ymm11
    4292:	c4 63 7d 39 ce 01    	vextracti128 $0x1,%ymm9,%xmm6
    4298:	c5 e5 73 f3 30       	vpsllq $0x30,%ymm3,%ymm3
    429d:	c4 41 15 eb db       	vpor   %ymm11,%ymm13,%ymm11
    42a2:	c4 62 7d 35 e9       	vpmovzxdq %xmm1,%ymm13
    42a7:	c5 e5 eb dd          	vpor   %ymm5,%ymm3,%ymm3
    42ab:	c4 e3 7d 39 c9 01    	vextracti128 $0x1,%ymm1,%xmm1
    42b1:	c4 41 25 eb ed       	vpor   %ymm13,%ymm11,%ymm13
    42b6:	c5 7a 6f 98 40 ff ff 	vmovdqu -0xc0(%rax),%xmm11
    42bd:	ff 
    42be:	c5 dd eb db          	vpor   %ymm3,%ymm4,%ymm3
    42c2:	c4 e2 7d 35 c9       	vpmovzxdq %xmm1,%ymm1
    42c7:	c4 c2 7d 35 e8       	vpmovzxdq %xmm8,%ymm5
    42cc:	c5 fa 6f a0 60 ff ff 	vmovdqu -0xa0(%rax),%xmm4
    42d3:	ff 
    42d4:	c5 e5 eb c9          	vpor   %ymm1,%ymm3,%ymm1
    42d8:	c5 d5 73 f5 38       	vpsllq $0x38,%ymm5,%ymm5
    42dd:	c4 e2 7d 35 f6       	vpmovzxdq %xmm6,%ymm6
    42e2:	c4 63 25 38 98 50 ff 	vinserti128 $0x1,-0xb0(%rax),%ymm11,%ymm11
    42e9:	ff ff 01 
    42ec:	c5 cd 73 f6 20       	vpsllq $0x20,%ymm6,%ymm6
    42f1:	c4 e3 5d 38 98 70 ff 	vinserti128 $0x1,-0x90(%rax),%ymm4,%ymm3
    42f8:	ff ff 01 
    42fb:	c5 78 11 a0 20 ff ff 	vmovups %xmm12,-0xe0(%rax)
    4302:	ff 
    4303:	c4 63 7d 39 a0 30 ff 	vextracti128 $0x1,%ymm12,-0xd0(%rax)
    430a:	ff ff 01 
    430d:	c4 e2 7d 35 e7       	vpmovzxdq %xmm7,%ymm4
    4312:	c5 f5 ef cb          	vpxor  %ymm3,%ymm1,%ymm1
    4316:	c4 c2 7d 35 d9       	vpmovzxdq %xmm9,%ymm3
    431b:	c4 41 15 ef db       	vpxor  %ymm11,%ymm13,%ymm11
    4320:	c5 7d 6f 8c 24 c0 00 	vmovdqa 0xc0(%rsp),%ymm9
    4327:	00 00 
    4329:	c5 e5 73 f3 20       	vpsllq $0x20,%ymm3,%ymm3
    432e:	c5 dd 73 f4 28       	vpsllq $0x28,%ymm4,%ymm4
    4333:	c5 78 11 98 40 ff ff 	vmovups %xmm11,-0xc0(%rax)
    433a:	ff 
    433b:	c4 63 7d 39 98 50 ff 	vextracti128 $0x1,%ymm11,-0xb0(%rax)
    4342:	ff ff 01 
    4345:	c5 dd eb e3          	vpor   %ymm3,%ymm4,%ymm4
    4349:	c4 c2 7d 35 da       	vpmovzxdq %xmm10,%ymm3
    434e:	c5 f8 11 88 60 ff ff 	vmovups %xmm1,-0xa0(%rax)
    4355:	ff 
    4356:	c4 e3 7d 39 88 70 ff 	vextracti128 $0x1,%ymm1,-0x90(%rax)
    435d:	ff ff 01 
    4360:	c5 e5 73 f3 30       	vpsllq $0x30,%ymm3,%ymm3
    4365:	c5 e5 eb dd          	vpor   %ymm5,%ymm3,%ymm3
    4369:	c5 fa 6f 68 80       	vmovdqu -0x80(%rax),%xmm5
    436e:	c5 dd eb db          	vpor   %ymm3,%ymm4,%ymm3
    4372:	c4 e2 7d 35 e2       	vpmovzxdq %xmm2,%ymm4
    4377:	c4 e3 7d 39 d2 01    	vextracti128 $0x1,%ymm2,%xmm2
    437d:	c5 e5 eb e4          	vpor   %ymm4,%ymm3,%ymm4
    4381:	c4 e3 55 38 58 90 01 	vinserti128 $0x1,-0x70(%rax),%ymm5,%ymm3
    4388:	c4 63 7d 39 c5 01    	vextracti128 $0x1,%ymm8,%xmm5
    438e:	c5 7d 6f 44 24 40    	vmovdqa 0x40(%rsp),%ymm8
    4394:	c4 e2 7d 35 ed       	vpmovzxdq %xmm5,%ymm5
    4399:	c4 e2 7d 35 d2       	vpmovzxdq %xmm2,%ymm2
    439e:	c5 dd ef db          	vpxor  %ymm3,%ymm4,%ymm3
    43a2:	c5 d5 73 f5 38       	vpsllq $0x38,%ymm5,%ymm5
    43a7:	c4 63 7d 39 d4 01    	vextracti128 $0x1,%ymm10,%xmm4
    43ad:	c5 7d 6f 94 24 00 01 	vmovdqa 0x100(%rsp),%ymm10
    43b4:	00 00 
    43b6:	c4 e2 7d 35 e4       	vpmovzxdq %xmm4,%ymm4
    43bb:	c5 f8 11 58 80       	vmovups %xmm3,-0x80(%rax)
    43c0:	c4 e3 7d 39 58 90 01 	vextracti128 $0x1,%ymm3,-0x70(%rax)
    43c7:	c5 dd 73 f4 30       	vpsllq $0x30,%ymm4,%ymm4
    43cc:	c5 dd eb e5          	vpor   %ymm5,%ymm4,%ymm4
    43d0:	c4 e3 7d 39 fd 01    	vextracti128 $0x1,%ymm7,%xmm5
    43d6:	c5 fd 6f bc 24 80 00 	vmovdqa 0x80(%rsp),%ymm7
    43dd:	00 00 
    43df:	c4 e2 7d 35 ed       	vpmovzxdq %xmm5,%ymm5
    43e4:	c5 d5 73 f5 28       	vpsllq $0x28,%ymm5,%ymm5
    43e9:	c5 d5 eb ee          	vpor   %ymm6,%ymm5,%ymm5
    43ed:	c4 c2 7d 35 f1       	vpmovzxdq %xmm9,%ymm6
    43f2:	c5 dd eb ed          	vpor   %ymm5,%ymm4,%ymm5
    43f6:	c5 fa 6f 60 a0       	vmovdqu -0x60(%rax),%xmm4
    43fb:	c4 e3 5d 38 60 b0 01 	vinserti128 $0x1,-0x50(%rax),%ymm4,%ymm4
    4402:	c5 d5 eb d2          	vpor   %ymm2,%ymm5,%ymm2
    4406:	c5 cd 73 f6 20       	vpsllq $0x20,%ymm6,%ymm6
    440b:	c4 e2 7d 35 e8       	vpmovzxdq %xmm0,%ymm5
    4410:	c5 ed ef d4          	vpxor  %ymm4,%ymm2,%ymm2
    4414:	c4 c2 7d 35 e0       	vpmovzxdq %xmm8,%ymm4
    4419:	c4 e3 7d 39 c0 01    	vextracti128 $0x1,%ymm0,%xmm0
    441f:	c5 dd 73 f4 38       	vpsllq $0x38,%ymm4,%ymm4
    4424:	c5 d5 73 f5 30       	vpsllq $0x30,%ymm5,%ymm5
    4429:	c4 e2 7d 35 c0       	vpmovzxdq %xmm0,%ymm0
    442e:	c5 f8 11 50 a0       	vmovups %xmm2,-0x60(%rax)
    4433:	c5 d5 eb ec          	vpor   %ymm4,%ymm5,%ymm5
    4437:	c4 c2 7d 35 e2       	vpmovzxdq %xmm10,%ymm4
    443c:	c4 e3 7d 39 50 b0 01 	vextracti128 $0x1,%ymm2,-0x50(%rax)
    4443:	c5 dd 73 f4 28       	vpsllq $0x28,%ymm4,%ymm4
    4448:	c5 fd 73 f0 30       	vpsllq $0x30,%ymm0,%ymm0
    444d:	c5 dd eb e6          	vpor   %ymm6,%ymm4,%ymm4
    4451:	c4 63 7d 39 ce 01    	vextracti128 $0x1,%ymm9,%xmm6
    4457:	c5 d5 eb e4          	vpor   %ymm4,%ymm5,%ymm4
    445b:	c4 e2 7d 35 ef       	vpmovzxdq %xmm7,%ymm5
    4460:	c4 e2 7d 35 f6       	vpmovzxdq %xmm6,%ymm6
    4465:	c5 dd eb ed          	vpor   %ymm5,%ymm4,%ymm5
    4469:	c5 fa 6f 60 c0       	vmovdqu -0x40(%rax),%xmm4
    446e:	c4 e3 5d 38 60 d0 01 	vinserti128 $0x1,-0x30(%rax),%ymm4,%ymm4
    4475:	c5 cd 73 f6 20       	vpsllq $0x20,%ymm6,%ymm6
    447a:	c5 d5 ef e4          	vpxor  %ymm4,%ymm5,%ymm4
    447e:	c4 63 7d 39 c5 01    	vextracti128 $0x1,%ymm8,%xmm5
    4484:	c4 e2 7d 35 ed       	vpmovzxdq %xmm5,%ymm5
    4489:	c5 d5 73 f5 38       	vpsllq $0x38,%ymm5,%ymm5
    448e:	c5 fd eb c5          	vpor   %ymm5,%ymm0,%ymm0
    4492:	c4 63 7d 39 d5 01    	vextracti128 $0x1,%ymm10,%xmm5
    4498:	c4 e2 7d 35 ed       	vpmovzxdq %xmm5,%ymm5
    449d:	c5 d5 73 f5 28       	vpsllq $0x28,%ymm5,%ymm5
    44a2:	c5 d5 eb ee          	vpor   %ymm6,%ymm5,%ymm5
    44a6:	c4 e3 7d 39 fe 01    	vextracti128 $0x1,%ymm7,%xmm6
    44ac:	c5 fa 6f 78 e0       	vmovdqu -0x20(%rax),%xmm7
    44b1:	c5 fd eb ed          	vpor   %ymm5,%ymm0,%ymm5
    44b5:	c4 e2 7d 35 f6       	vpmovzxdq %xmm6,%ymm6
    44ba:	c4 e3 45 38 40 f0 01 	vinserti128 $0x1,-0x10(%rax),%ymm7,%ymm0
    44c1:	c4 e2 7d 35 bc 24 20 	vpmovzxdq 0x120(%rsp),%ymm7
    44c8:	01 00 00 
    44cb:	c5 d5 eb ee          	vpor   %ymm6,%ymm5,%ymm5
    44cf:	c4 e2 7d 35 b4 24 e0 	vpmovzxdq 0xe0(%rsp),%ymm6
    44d6:	00 00 00 
    44d9:	c5 d5 ef e8          	vpxor  %ymm0,%ymm5,%ymm5
    44dd:	c5 c5 73 f7 38       	vpsllq $0x38,%ymm7,%ymm7
    44e2:	c4 e2 7d 35 84 24 a0 	vpmovzxdq 0xa0(%rsp),%ymm0
    44e9:	00 00 00 
    44ec:	c5 cd 73 f6 28       	vpsllq $0x28,%ymm6,%ymm6
    44f1:	c5 fd 73 f0 20       	vpsllq $0x20,%ymm0,%ymm0
    44f6:	c5 cd eb f0          	vpor   %ymm0,%ymm6,%ymm6
    44fa:	c4 e2 7d 35 84 24 40 	vpmovzxdq 0x140(%rsp),%ymm0
    4501:	01 00 00 
    4504:	c5 fd 73 f0 30       	vpsllq $0x30,%ymm0,%ymm0
    4509:	c5 fd eb c7          	vpor   %ymm7,%ymm0,%ymm0
    450d:	c5 fa 6f b8 00 ff ff 	vmovdqu -0x100(%rax),%xmm7
    4514:	ff 
    4515:	c5 cd eb c0          	vpor   %ymm0,%ymm6,%ymm0
    4519:	c4 e2 7d 35 74 24 60 	vpmovzxdq 0x60(%rsp),%ymm6
    4520:	c5 fd eb c6          	vpor   %ymm6,%ymm0,%ymm0
    4524:	c4 e3 45 38 b0 10 ff 	vinserti128 $0x1,-0xf0(%rax),%ymm7,%ymm6
    452b:	ff ff 01 
    452e:	c5 fd ef c6          	vpxor  %ymm6,%ymm0,%ymm0
    4532:	c5 f8 11 80 00 ff ff 	vmovups %xmm0,-0x100(%rax)
    4539:	ff 
    453a:	c4 e3 7d 39 80 10 ff 	vextracti128 $0x1,%ymm0,-0xf0(%rax)
    4541:	ff ff 01 
    4544:	c5 f8 11 60 c0       	vmovups %xmm4,-0x40(%rax)
    4549:	c4 e3 7d 39 60 d0 01 	vextracti128 $0x1,%ymm4,-0x30(%rax)
    4550:	c4 e3 7d 39 68 f0 01 	vextracti128 $0x1,%ymm5,-0x10(%rax)
    4557:	c5 f8 11 68 e0       	vmovups %xmm5,-0x20(%rax)
    455c:	48 39 c8             	cmp    %rcx,%rax
    455f:	0f 85 d4 f7 ff ff    	jne    3d39 <keccak_absorb+0xa89>
    4565:	48 89 f7             	mov    %rsi,%rdi
    4568:	48 83 e7 e0          	and    $0xffffffffffffffe0,%rdi
    456c:	48 f7 c6 1f 00 00 e0 	test   $0xffffffffe000001f,%rsi
    4573:	0f 84 29 01 00 00    	je     46a2 <keccak_absorb+0x13f2>
    4579:	c5 f8 77             	vzeroupper 
    457c:	49 8d 04 fa          	lea    (%r10,%rdi,8),%rax
    4580:	0f b6 50 02          	movzbl 0x2(%rax),%edx
    4584:	0f b6 48 01          	movzbl 0x1(%rax),%ecx
    4588:	48 83 c0 08          	add    $0x8,%rax
    458c:	48 c1 e1 08          	shl    $0x8,%rcx
    4590:	48 c1 e2 10          	shl    $0x10,%rdx
    4594:	48 09 ca             	or     %rcx,%rdx
    4597:	0f b6 48 f8          	movzbl -0x8(%rax),%ecx
    459b:	48 09 ca             	or     %rcx,%rdx
    459e:	0f b6 48 fb          	movzbl -0x5(%rax),%ecx
    45a2:	48 c1 e1 18          	shl    $0x18,%rcx
    45a6:	48 09 ca             	or     %rcx,%rdx
    45a9:	0f b6 48 fc          	movzbl -0x4(%rax),%ecx
    45ad:	48 c1 e1 20          	shl    $0x20,%rcx
    45b1:	48 09 ca             	or     %rcx,%rdx
    45b4:	0f b6 48 fd          	movzbl -0x3(%rax),%ecx
    45b8:	48 c1 e1 28          	shl    $0x28,%rcx
    45bc:	48 09 d1             	or     %rdx,%rcx
    45bf:	0f b6 50 fe          	movzbl -0x2(%rax),%edx
    45c3:	48 c1 e2 30          	shl    $0x30,%rdx
    45c7:	48 09 d1             	or     %rdx,%rcx
    45ca:	0f b6 50 ff          	movzbl -0x1(%rax),%edx
    45ce:	48 c1 e2 38          	shl    $0x38,%rdx
    45d2:	48 09 ca             	or     %rcx,%rdx
    45d5:	49 31 14 ff          	xor    %rdx,(%r15,%rdi,8)
    45d9:	48 83 c7 01          	add    $0x1,%rdi
    45dd:	48 39 fe             	cmp    %rdi,%rsi
    45e0:	77 9e                	ja     4580 <keccak_absorb+0x12d0>
    45e2:	48 8b 84 24 38 02 00 	mov    0x238(%rsp),%rax
    45e9:	00 
    45ea:	64 48 33 04 25 28 00 	xor    %fs:0x28,%rax
    45f1:	00 00 
    45f3:	0f 85 b1 00 00 00    	jne    46aa <keccak_absorb+0x13fa>
    45f9:	48 8d 65 d8          	lea    -0x28(%rbp),%rsp
    45fd:	5b                   	pop    %rbx
    45fe:	41 5c                	pop    %r12
    4600:	41 5d                	pop    %r13
    4602:	41 5e                	pop    %r14
    4604:	41 5f                	pop    %r15
    4606:	5d                   	pop    %rbp
    4607:	c3                   	retq   
    4608:	48 8b 7c 24 18       	mov    0x18(%rsp),%rdi
    460d:	4c 89 e0             	mov    %r12,%rax
    4610:	4c 89 fe             	mov    %r15,%rsi
    4613:	4c 01 e7             	add    %r12,%rdi
    4616:	66 2e 0f 1f 84 00 00 	nopw   %cs:0x0(%rax,%rax,1)
    461d:	00 00 00 
    4620:	0f b6 50 01          	movzbl 0x1(%rax),%edx
    4624:	0f b6 48 02          	movzbl 0x2(%rax),%ecx
    4628:	48 83 c0 08          	add    $0x8,%rax
    462c:	48 c1 e1 10          	shl    $0x10,%rcx
    4630:	48 c1 e2 08          	shl    $0x8,%rdx
    4634:	48 09 ca             	or     %rcx,%rdx
    4637:	0f b6 48 f8          	movzbl -0x8(%rax),%ecx
    463b:	48 09 ca             	or     %rcx,%rdx
    463e:	0f b6 48 fb          	movzbl -0x5(%rax),%ecx
    4642:	48 c1 e1 18          	shl    $0x18,%rcx
    4646:	48 09 ca             	or     %rcx,%rdx
    4649:	0f b6 48 fc          	movzbl -0x4(%rax),%ecx
    464d:	48 c1 e1 20          	shl    $0x20,%rcx
    4651:	48 09 ca             	or     %rcx,%rdx
    4654:	0f b6 48 fd          	movzbl -0x3(%rax),%ecx
    4658:	48 c1 e1 28          	shl    $0x28,%rcx
    465c:	48 09 d1             	or     %rdx,%rcx
    465f:	0f b6 50 fe          	movzbl -0x2(%rax),%edx
    4663:	48 c1 e2 30          	shl    $0x30,%rdx
    4667:	48 09 d1             	or     %rdx,%rcx
    466a:	0f b6 50 ff          	movzbl -0x1(%rax),%edx
    466e:	48 c1 e2 38          	shl    $0x38,%rdx
    4672:	48 09 ca             	or     %rcx,%rdx
    4675:	48 31 16             	xor    %rdx,(%rsi)
    4678:	48 83 c6 08          	add    $0x8,%rsi
    467c:	48 39 f8             	cmp    %rdi,%rax
    467f:	75 9f                	jne    4620 <keccak_absorb+0x1370>
    4681:	e9 ec f5 ff ff       	jmpq   3c72 <keccak_absorb+0x9c2>
    4686:	4c 8d 94 24 60 01 00 	lea    0x160(%rsp),%r10
    468d:	00 
    468e:	48 85 db             	test   %rbx,%rbx
    4691:	74 0f                	je     46a2 <keccak_absorb+0x13f2>
    4693:	c5 f8 77             	vzeroupper 
    4696:	e9 2e f6 ff ff       	jmpq   3cc9 <keccak_absorb+0xa19>
    469b:	31 ff                	xor    %edi,%edi
    469d:	e9 da fe ff ff       	jmpq   457c <keccak_absorb+0x12cc>
    46a2:	c5 f8 77             	vzeroupper 
    46a5:	e9 38 ff ff ff       	jmpq   45e2 <keccak_absorb+0x1332>
    46aa:	e8 21 ca ff ff       	callq  10d0 <__stack_chk_fail@plt>
    46af:	90                   	nop

00000000000046b0 <keccak_squeezeblocks>:
    46b0:	f3 0f 1e fa          	endbr64 
    46b4:	48 85 f6             	test   %rsi,%rsi
    46b7:	0f 84 36 09 00 00    	je     4ff3 <keccak_squeezeblocks+0x943>
    46bd:	55                   	push   %rbp
    46be:	89 c8                	mov    %ecx,%eax
    46c0:	c1 e8 08             	shr    $0x8,%eax
    46c3:	48 89 e5             	mov    %rsp,%rbp
    46c6:	41 57                	push   %r15
    46c8:	41 56                	push   %r14
    46ca:	41 89 ce             	mov    %ecx,%r14d
    46cd:	41 55                	push   %r13
    46cf:	41 c1 ee 03          	shr    $0x3,%r14d
    46d3:	49 89 fd             	mov    %rdi,%r13
    46d6:	41 54                	push   %r12
    46d8:	49 89 d4             	mov    %rdx,%r12
    46db:	53                   	push   %rbx
    46dc:	48 89 f3             	mov    %rsi,%rbx
    46df:	89 ce                	mov    %ecx,%esi
    46e1:	48 83 e4 e0          	and    $0xffffffffffffffe0,%rsp
    46e5:	48 81 ec c0 00 00 00 	sub    $0xc0,%rsp
    46ec:	48 89 74 24 38       	mov    %rsi,0x38(%rsp)
    46f1:	89 c6                	mov    %eax,%esi
    46f3:	c1 e0 05             	shl    $0x5,%eax
    46f6:	89 44 24 30          	mov    %eax,0x30(%rsp)
    46fa:	48 c1 e0 03          	shl    $0x3,%rax
    46fe:	48 c1 e6 08          	shl    $0x8,%rsi
    4702:	48 89 44 24 28       	mov    %rax,0x28(%rsp)
    4707:	48 01 d0             	add    %rdx,%rax
    470a:	4c 8d 3c 16          	lea    (%rsi,%rdx,1),%r15
    470e:	48 89 44 24 20       	mov    %rax,0x20(%rsp)
    4713:	41 8d 46 ff          	lea    -0x1(%r14),%eax
    4717:	4c 89 fe             	mov    %r15,%rsi
    471a:	45 89 f7             	mov    %r14d,%r15d
    471d:	89 44 24 34          	mov    %eax,0x34(%rsp)
    4721:	48 8d 04 c5 08 00 00 	lea    0x8(,%rax,8),%rax
    4728:	00 
    4729:	49 89 f6             	mov    %rsi,%r14
    472c:	48 89 44 24 18       	mov    %rax,0x18(%rsp)
    4731:	0f 1f 80 00 00 00 00 	nopl   0x0(%rax)
    4738:	4c 89 e7             	mov    %r12,%rdi
    473b:	e8 d0 ce ff ff       	callq  1610 <KeccakF1600_StatePermute>
    4740:	45 85 ff             	test   %r15d,%r15d
    4743:	c5 fd 6f 35 f5 a8 05 	vmovdqa 0x5a8f5(%rip),%ymm6        # 5f040 <_IO_stdin_used+0x40>
    474a:	00 
    474b:	0f 84 09 08 00 00    	je     4f5a <keccak_squeezeblocks+0x8aa>
    4751:	49 8d 84 24 ff 00 00 	lea    0xff(%r12),%rax
    4758:	00 
    4759:	4c 29 e8             	sub    %r13,%rax
    475c:	48 3d fe 01 00 00    	cmp    $0x1fe,%rax
    4762:	0f 86 05 08 00 00    	jbe    4f6d <keccak_squeezeblocks+0x8bd>
    4768:	83 7c 24 34 1e       	cmpl   $0x1e,0x34(%rsp)
    476d:	0f 86 fa 07 00 00    	jbe    4f6d <keccak_squeezeblocks+0x8bd>
    4773:	4c 89 ea             	mov    %r13,%rdx
    4776:	4c 89 e0             	mov    %r12,%rax
    4779:	0f 1f 80 00 00 00 00 	nopl   0x0(%rax)
    4780:	c5 fa 6f 60 20       	vmovdqu 0x20(%rax),%xmm4
    4785:	c5 fa 6f 38          	vmovdqu (%rax),%xmm7
    4789:	48 05 00 01 00 00    	add    $0x100,%rax
    478f:	48 81 c2 00 01 00 00 	add    $0x100,%rdx
    4796:	c4 e3 5d 38 98 30 ff 	vinserti128 $0x1,-0xd0(%rax),%ymm4,%ymm3
    479d:	ff ff 01 
    47a0:	c5 fa 6f 40 c0       	vmovdqu -0x40(%rax),%xmm0
    47a5:	c4 e3 45 38 b8 10 ff 	vinserti128 $0x1,-0xf0(%rax),%ymm7,%ymm7
    47ac:	ff ff 01 
    47af:	c4 e3 7d 38 40 d0 01 	vinserti128 $0x1,-0x30(%rax),%ymm0,%ymm0
    47b6:	c5 fa 6f a0 40 ff ff 	vmovdqu -0xc0(%rax),%xmm4
    47bd:	ff 
    47be:	c5 7a 6f 60 e0       	vmovdqu -0x20(%rax),%xmm12
    47c3:	c5 7d 6f c0          	vmovdqa %ymm0,%ymm8
    47c7:	c4 63 45 46 db 31    	vperm2i128 $0x31,%ymm3,%ymm7,%ymm11
    47cd:	c4 63 1d 38 60 f0 01 	vinserti128 $0x1,-0x10(%rax),%ymm12,%ymm12
    47d4:	c5 fd 7f 84 24 80 00 	vmovdqa %ymm0,0x80(%rsp)
    47db:	00 00 
    47dd:	c4 e3 5d 38 90 50 ff 	vinserti128 $0x1,-0xb0(%rax),%ymm4,%ymm2
    47e4:	ff ff 01 
    47e7:	c4 e3 45 46 c3 20    	vperm2i128 $0x20,%ymm3,%ymm7,%ymm0
    47ed:	c4 41 7d 70 db d8    	vpshufd $0xd8,%ymm11,%ymm11
    47f3:	c5 fa 6f a0 60 ff ff 	vmovdqu -0xa0(%rax),%xmm4
    47fa:	ff 
    47fb:	c4 e3 5d 38 a8 70 ff 	vinserti128 $0x1,-0x90(%rax),%ymm4,%ymm5
    4802:	ff ff 01 
    4805:	c5 fd 70 c0 d8       	vpshufd $0xd8,%ymm0,%ymm0
    480a:	c5 fa 6f 60 80       	vmovdqu -0x80(%rax),%xmm4
    480f:	c5 7d 7f a4 24 a0 00 	vmovdqa %ymm12,0xa0(%rsp)
    4816:	00 00 
    4818:	c4 e3 5d 38 48 90 01 	vinserti128 $0x1,-0x70(%rax),%ymm4,%ymm1
    481f:	c4 c1 7d 6c c3       	vpunpcklqdq %ymm11,%ymm0,%ymm0
    4824:	c5 fa 6f 60 a0       	vmovdqu -0x60(%rax),%xmm4
    4829:	c4 63 6d 46 f5 31    	vperm2i128 $0x31,%ymm5,%ymm2,%ymm14
    482f:	c4 e3 5d 38 60 b0 01 	vinserti128 $0x1,-0x50(%rax),%ymm4,%ymm4
    4836:	c4 63 6d 46 dd 20    	vperm2i128 $0x20,%ymm5,%ymm2,%ymm11
    483c:	c4 41 7d 70 db d8    	vpshufd $0xd8,%ymm11,%ymm11
    4842:	c4 41 7d 70 d6 d8    	vpshufd $0xd8,%ymm14,%ymm10
    4848:	c4 41 25 6c d2       	vpunpcklqdq %ymm10,%ymm11,%ymm10
    484d:	c4 63 75 46 cc 31    	vperm2i128 $0x31,%ymm4,%ymm1,%ymm9
    4853:	c4 63 75 46 dc 20    	vperm2i128 $0x20,%ymm4,%ymm1,%ymm11
    4859:	c4 41 7d 70 db d8    	vpshufd $0xd8,%ymm11,%ymm11
    485f:	c4 41 7d 70 c9 d8    	vpshufd $0xd8,%ymm9,%ymm9
    4865:	c4 41 25 6c c9       	vpunpcklqdq %ymm9,%ymm11,%ymm9
    486a:	c4 43 3d 46 dc 20    	vperm2i128 $0x20,%ymm12,%ymm8,%ymm11
    4870:	c4 43 3d 46 c4 31    	vperm2i128 $0x31,%ymm12,%ymm8,%ymm8
    4876:	c4 41 7d 70 c0 d8    	vpshufd $0xd8,%ymm8,%ymm8
    487c:	c4 41 7d 70 e3 d8    	vpshufd $0xd8,%ymm11,%ymm12
    4882:	c4 41 4d db da       	vpand  %ymm10,%ymm6,%ymm11
    4887:	c4 41 1d 6c e0       	vpunpcklqdq %ymm8,%ymm12,%ymm12
    488c:	c5 4d db c0          	vpand  %ymm0,%ymm6,%ymm8
    4890:	c4 41 4d db ec       	vpand  %ymm12,%ymm6,%ymm13
    4895:	c4 42 3d 2b c3       	vpackusdw %ymm11,%ymm8,%ymm8
    489a:	c4 41 4d db d9       	vpand  %ymm9,%ymm6,%ymm11
    489f:	c4 42 25 2b dd       	vpackusdw %ymm13,%ymm11,%ymm11
    48a4:	c4 43 fd 00 c0 d8    	vpermq $0xd8,%ymm8,%ymm8
    48aa:	c5 3d db 2d ce a8 05 	vpand  0x5a8ce(%rip),%ymm8,%ymm13        # 5f180 <KeccakF_RoundConstants+0xe0>
    48b1:	00 
    48b2:	c4 43 fd 00 db d8    	vpermq $0xd8,%ymm11,%ymm11
    48b8:	c4 c1 3d 71 d0 08    	vpsrlw $0x8,%ymm8,%ymm8
    48be:	c5 25 db 35 ba a8 05 	vpand  0x5a8ba(%rip),%ymm11,%ymm14        # 5f180 <KeccakF_RoundConstants+0xe0>
    48c5:	00 
    48c6:	c5 3d db 05 b2 a8 05 	vpand  0x5a8b2(%rip),%ymm8,%ymm8        # 5f180 <KeccakF_RoundConstants+0xe0>
    48cd:	00 
    48ce:	c4 c1 25 71 d3 08    	vpsrlw $0x8,%ymm11,%ymm11
    48d4:	c5 25 db 1d a4 a8 05 	vpand  0x5a8a4(%rip),%ymm11,%ymm11        # 5f180 <KeccakF_RoundConstants+0xe0>
    48db:	00 
    48dc:	c4 41 15 67 ee       	vpackuswb %ymm14,%ymm13,%ymm13
    48e1:	c4 41 3d 67 c3       	vpackuswb %ymm11,%ymm8,%ymm8
    48e6:	c4 c1 25 72 d2 10    	vpsrld $0x10,%ymm10,%ymm11
    48ec:	c4 43 fd 00 fd d8    	vpermq $0xd8,%ymm13,%ymm15
    48f2:	c4 43 fd 00 f0 d8    	vpermq $0xd8,%ymm8,%ymm14
    48f8:	c5 bd 72 d0 10       	vpsrld $0x10,%ymm0,%ymm8
    48fd:	c4 41 4d db db       	vpand  %ymm11,%ymm6,%ymm11
    4902:	c5 7d 7f 7c 24 60    	vmovdqa %ymm15,0x60(%rsp)
    4908:	c4 41 4d db c0       	vpand  %ymm8,%ymm6,%ymm8
    490d:	c5 7d 7f 74 24 40    	vmovdqa %ymm14,0x40(%rsp)
    4913:	c4 c1 15 72 d4 10    	vpsrld $0x10,%ymm12,%ymm13
    4919:	c4 42 3d 2b c3       	vpackusdw %ymm11,%ymm8,%ymm8
    491e:	c4 c1 0d 72 d2 18    	vpsrld $0x18,%ymm10,%ymm14
    4924:	c4 41 4d db ed       	vpand  %ymm13,%ymm6,%ymm13
    4929:	c4 c1 25 72 d1 10    	vpsrld $0x10,%ymm9,%ymm11
    492f:	c5 fd 72 d0 18       	vpsrld $0x18,%ymm0,%ymm0
    4934:	c4 41 4d db d6       	vpand  %ymm14,%ymm6,%ymm10
    4939:	c5 cd db c0          	vpand  %ymm0,%ymm6,%ymm0
    493d:	c4 41 4d db db       	vpand  %ymm11,%ymm6,%ymm11
    4942:	c4 43 fd 00 c0 d8    	vpermq $0xd8,%ymm8,%ymm8
    4948:	c4 42 25 2b dd       	vpackusdw %ymm13,%ymm11,%ymm11
    494d:	c4 42 7d 2b d2       	vpackusdw %ymm10,%ymm0,%ymm10
    4952:	c5 3d db 05 26 a8 05 	vpand  0x5a826(%rip),%ymm8,%ymm8        # 5f180 <KeccakF_RoundConstants+0xe0>
    4959:	00 
    495a:	c5 7d 6f ac 24 80 00 	vmovdqa 0x80(%rsp),%ymm13
    4961:	00 00 
    4963:	c4 c1 7d 72 d1 18    	vpsrld $0x18,%ymm9,%ymm0
    4969:	c4 c1 1d 72 d4 18    	vpsrld $0x18,%ymm12,%ymm12
    496f:	c4 43 fd 00 db d8    	vpermq $0xd8,%ymm11,%ymm11
    4975:	c4 41 4d db e4       	vpand  %ymm12,%ymm6,%ymm12
    497a:	c5 25 db 1d fe a7 05 	vpand  0x5a7fe(%rip),%ymm11,%ymm11        # 5f180 <KeccakF_RoundConstants+0xe0>
    4981:	00 
    4982:	c5 cd db c0          	vpand  %ymm0,%ymm6,%ymm0
    4986:	c4 c2 7d 2b c4       	vpackusdw %ymm12,%ymm0,%ymm0
    498b:	c5 b5 73 d3 20       	vpsrlq $0x20,%ymm3,%ymm9
    4990:	c4 43 fd 00 d2 d8    	vpermq $0xd8,%ymm10,%ymm10
    4996:	c5 7d 6f a4 24 a0 00 	vmovdqa 0xa0(%rsp),%ymm12
    499d:	00 00 
    499f:	c5 2d db 35 d9 a7 05 	vpand  0x5a7d9(%rip),%ymm10,%ymm14        # 5f180 <KeccakF_RoundConstants+0xe0>
    49a6:	00 
    49a7:	c4 41 3d 67 c3       	vpackuswb %ymm11,%ymm8,%ymm8
    49ac:	c4 e3 fd 00 c0 d8    	vpermq $0xd8,%ymm0,%ymm0
    49b2:	c5 ad 73 d5 20       	vpsrlq $0x20,%ymm5,%ymm10
    49b7:	c4 c1 25 73 d4 20    	vpsrlq $0x20,%ymm12,%ymm11
    49bd:	c4 43 fd 00 f8 d8    	vpermq $0xd8,%ymm8,%ymm15
    49c3:	c5 fd db 05 b5 a7 05 	vpand  0x5a7b5(%rip),%ymm0,%ymm0        # 5f180 <KeccakF_RoundConstants+0xe0>
    49ca:	00 
    49cb:	c5 bd 73 d7 20       	vpsrlq $0x20,%ymm7,%ymm8
    49d0:	c4 c1 1d 73 d4 28    	vpsrlq $0x28,%ymm12,%ymm12
    49d6:	c5 0d 67 f0          	vpackuswb %ymm0,%ymm14,%ymm14
    49da:	c4 c3 3d 46 c1 20    	vperm2i128 $0x20,%ymm9,%ymm8,%ymm0
    49e0:	c4 43 3d 46 c1 31    	vperm2i128 $0x31,%ymm9,%ymm8,%ymm8
    49e6:	c4 41 7d 70 c0 d8    	vpshufd $0xd8,%ymm8,%ymm8
    49ec:	c5 b5 73 d2 20       	vpsrlq $0x20,%ymm2,%ymm9
    49f1:	c5 fd 70 c0 d8       	vpshufd $0xd8,%ymm0,%ymm0
    49f6:	c4 c1 7d 6c c0       	vpunpcklqdq %ymm8,%ymm0,%ymm0
    49fb:	c4 43 35 46 c2 20    	vperm2i128 $0x20,%ymm10,%ymm9,%ymm8
    4a01:	c4 43 35 46 ca 31    	vperm2i128 $0x31,%ymm10,%ymm9,%ymm9
    4a07:	c4 41 7d 70 c9 d8    	vpshufd $0xd8,%ymm9,%ymm9
    4a0d:	c4 41 7d 70 c0 d8    	vpshufd $0xd8,%ymm8,%ymm8
    4a13:	c5 cd db c0          	vpand  %ymm0,%ymm6,%ymm0
    4a17:	c4 41 3d 6c c1       	vpunpcklqdq %ymm9,%ymm8,%ymm8
    4a1c:	c5 b5 73 d1 20       	vpsrlq $0x20,%ymm1,%ymm9
    4a21:	c4 43 fd 00 f6 d8    	vpermq $0xd8,%ymm14,%ymm14
    4a27:	c4 41 4d db c0       	vpand  %ymm8,%ymm6,%ymm8
    4a2c:	c4 c2 7d 2b c0       	vpackusdw %ymm8,%ymm0,%ymm0
    4a31:	c5 bd 73 d4 20       	vpsrlq $0x20,%ymm4,%ymm8
    4a36:	c4 43 35 46 d0 20    	vperm2i128 $0x20,%ymm8,%ymm9,%ymm10
    4a3c:	c4 43 35 46 c8 31    	vperm2i128 $0x31,%ymm8,%ymm9,%ymm9
    4a42:	c4 e3 fd 00 c0 d8    	vpermq $0xd8,%ymm0,%ymm0
    4a48:	c4 41 7d 70 d2 d8    	vpshufd $0xd8,%ymm10,%ymm10
    4a4e:	c4 41 7d 70 c1 d8    	vpshufd $0xd8,%ymm9,%ymm8
    4a54:	c4 c1 35 73 d5 20    	vpsrlq $0x20,%ymm13,%ymm9
    4a5a:	c4 41 2d 6c c0       	vpunpcklqdq %ymm8,%ymm10,%ymm8
    4a5f:	c4 43 35 46 d3 20    	vperm2i128 $0x20,%ymm11,%ymm9,%ymm10
    4a65:	c4 43 35 46 cb 31    	vperm2i128 $0x31,%ymm11,%ymm9,%ymm9
    4a6b:	c4 41 4d db c0       	vpand  %ymm8,%ymm6,%ymm8
    4a70:	c4 41 7d 70 d2 d8    	vpshufd $0xd8,%ymm10,%ymm10
    4a76:	c5 a5 73 d5 28       	vpsrlq $0x28,%ymm5,%ymm11
    4a7b:	c4 41 7d 70 c9 d8    	vpshufd $0xd8,%ymm9,%ymm9
    4a81:	c4 41 2d 6c c9       	vpunpcklqdq %ymm9,%ymm10,%ymm9
    4a86:	c4 41 4d db c9       	vpand  %ymm9,%ymm6,%ymm9
    4a8b:	c4 42 3d 2b c1       	vpackusdw %ymm9,%ymm8,%ymm8
    4a90:	c5 7d db 0d e8 a6 05 	vpand  0x5a6e8(%rip),%ymm0,%ymm9        # 5f180 <KeccakF_RoundConstants+0xe0>
    4a97:	00 
    4a98:	c4 43 fd 00 c0 d8    	vpermq $0xd8,%ymm8,%ymm8
    4a9e:	c5 3d db 05 da a6 05 	vpand  0x5a6da(%rip),%ymm8,%ymm8        # 5f180 <KeccakF_RoundConstants+0xe0>
    4aa5:	00 
    4aa6:	c5 fd 73 d3 28       	vpsrlq $0x28,%ymm3,%ymm0
    4aab:	c4 41 35 67 c8       	vpackuswb %ymm8,%ymm9,%ymm9
    4ab0:	c5 bd 73 d7 28       	vpsrlq $0x28,%ymm7,%ymm8
    4ab5:	c4 63 3d 46 d0 20    	vperm2i128 $0x20,%ymm0,%ymm8,%ymm10
    4abb:	c4 63 3d 46 c0 31    	vperm2i128 $0x31,%ymm0,%ymm8,%ymm8
    4ac1:	c4 43 fd 00 c9 d8    	vpermq $0xd8,%ymm9,%ymm9
    4ac7:	c4 41 7d 70 d2 d8    	vpshufd $0xd8,%ymm10,%ymm10
    4acd:	c4 c1 7d 70 c0 d8    	vpshufd $0xd8,%ymm8,%ymm0
    4ad3:	c5 bd 73 d2 28       	vpsrlq $0x28,%ymm2,%ymm8
    4ad8:	c5 ad 6c c0          	vpunpcklqdq %ymm0,%ymm10,%ymm0
    4adc:	c4 43 3d 46 d3 20    	vperm2i128 $0x20,%ymm11,%ymm8,%ymm10
    4ae2:	c4 43 3d 46 c3 31    	vperm2i128 $0x31,%ymm11,%ymm8,%ymm8
    4ae8:	c5 cd db c0          	vpand  %ymm0,%ymm6,%ymm0
    4aec:	c4 41 7d 70 d2 d8    	vpshufd $0xd8,%ymm10,%ymm10
    4af2:	c4 41 7d 70 c0 d8    	vpshufd $0xd8,%ymm8,%ymm8
    4af8:	c4 41 2d 6c c0       	vpunpcklqdq %ymm8,%ymm10,%ymm8
    4afd:	c5 ad 73 d1 28       	vpsrlq $0x28,%ymm1,%ymm10
    4b02:	c4 41 4d db c0       	vpand  %ymm8,%ymm6,%ymm8
    4b07:	c4 c2 7d 2b c0       	vpackusdw %ymm8,%ymm0,%ymm0
    4b0c:	c5 bd 73 d4 28       	vpsrlq $0x28,%ymm4,%ymm8
    4b11:	c4 43 2d 46 d8 20    	vperm2i128 $0x20,%ymm8,%ymm10,%ymm11
    4b17:	c4 43 2d 46 d0 31    	vperm2i128 $0x31,%ymm8,%ymm10,%ymm10
    4b1d:	c4 e3 fd 00 c0 d8    	vpermq $0xd8,%ymm0,%ymm0
    4b23:	c4 41 7d 70 db d8    	vpshufd $0xd8,%ymm11,%ymm11
    4b29:	c4 41 7d 70 c2 d8    	vpshufd $0xd8,%ymm10,%ymm8
    4b2f:	c4 c1 2d 73 d5 28    	vpsrlq $0x28,%ymm13,%ymm10
    4b35:	c4 41 25 6c c0       	vpunpcklqdq %ymm8,%ymm11,%ymm8
    4b3a:	c4 43 2d 46 dc 20    	vperm2i128 $0x20,%ymm12,%ymm10,%ymm11
    4b40:	c4 43 2d 46 d4 31    	vperm2i128 $0x31,%ymm12,%ymm10,%ymm10
    4b46:	c4 41 4d db c0       	vpand  %ymm8,%ymm6,%ymm8
    4b4b:	c4 41 7d 70 db d8    	vpshufd $0xd8,%ymm11,%ymm11
    4b51:	c5 9d 73 d5 30       	vpsrlq $0x30,%ymm5,%ymm12
    4b56:	c4 41 7d 70 d2 d8    	vpshufd $0xd8,%ymm10,%ymm10
    4b5c:	c4 41 25 6c d2       	vpunpcklqdq %ymm10,%ymm11,%ymm10
    4b61:	c5 d5 73 d5 38       	vpsrlq $0x38,%ymm5,%ymm5
    4b66:	c4 41 4d db d2       	vpand  %ymm10,%ymm6,%ymm10
    4b6b:	c4 42 3d 2b d2       	vpackusdw %ymm10,%ymm8,%ymm10
    4b70:	c5 7d db 05 08 a6 05 	vpand  0x5a608(%rip),%ymm0,%ymm8        # 5f180 <KeccakF_RoundConstants+0xe0>
    4b77:	00 
    4b78:	c4 43 fd 00 d2 d8    	vpermq $0xd8,%ymm10,%ymm10
    4b7e:	c5 2d db 15 fa a5 05 	vpand  0x5a5fa(%rip),%ymm10,%ymm10        # 5f180 <KeccakF_RoundConstants+0xe0>
    4b85:	00 
    4b86:	c5 fd 73 d3 30       	vpsrlq $0x30,%ymm3,%ymm0
    4b8b:	c5 e5 73 d3 38       	vpsrlq $0x38,%ymm3,%ymm3
    4b90:	c4 41 3d 67 c2       	vpackuswb %ymm10,%ymm8,%ymm8
    4b95:	c5 ad 73 d7 30       	vpsrlq $0x30,%ymm7,%ymm10
    4b9a:	c4 63 2d 46 d8 20    	vperm2i128 $0x20,%ymm0,%ymm10,%ymm11
    4ba0:	c4 63 2d 46 d0 31    	vperm2i128 $0x31,%ymm0,%ymm10,%ymm10
    4ba6:	c4 43 fd 00 c0 d8    	vpermq $0xd8,%ymm8,%ymm8
    4bac:	c4 41 7d 70 db d8    	vpshufd $0xd8,%ymm11,%ymm11
    4bb2:	c5 c5 73 d7 38       	vpsrlq $0x38,%ymm7,%ymm7
    4bb7:	c4 c1 7d 70 c2 d8    	vpshufd $0xd8,%ymm10,%ymm0
    4bbd:	c5 ad 73 d2 30       	vpsrlq $0x30,%ymm2,%ymm10
    4bc2:	c5 ed 73 d2 38       	vpsrlq $0x38,%ymm2,%ymm2
    4bc7:	c5 a5 6c c0          	vpunpcklqdq %ymm0,%ymm11,%ymm0
    4bcb:	c4 43 2d 46 dc 20    	vperm2i128 $0x20,%ymm12,%ymm10,%ymm11
    4bd1:	c4 43 2d 46 d4 31    	vperm2i128 $0x31,%ymm12,%ymm10,%ymm10
    4bd7:	c5 cd db c0          	vpand  %ymm0,%ymm6,%ymm0
    4bdb:	c4 41 7d 70 db d8    	vpshufd $0xd8,%ymm11,%ymm11
    4be1:	c4 41 7d 70 d2 d8    	vpshufd $0xd8,%ymm10,%ymm10
    4be7:	c4 41 25 6c d2       	vpunpcklqdq %ymm10,%ymm11,%ymm10
    4bec:	c5 a5 73 d1 30       	vpsrlq $0x30,%ymm1,%ymm11
    4bf1:	c4 41 4d db d2       	vpand  %ymm10,%ymm6,%ymm10
    4bf6:	c5 f5 73 d1 38       	vpsrlq $0x38,%ymm1,%ymm1
    4bfb:	c4 c2 7d 2b c2       	vpackusdw %ymm10,%ymm0,%ymm0
    4c00:	c5 ad 73 d4 30       	vpsrlq $0x30,%ymm4,%ymm10
    4c05:	c4 43 25 46 e2 20    	vperm2i128 $0x20,%ymm10,%ymm11,%ymm12
    4c0b:	c4 43 25 46 da 31    	vperm2i128 $0x31,%ymm10,%ymm11,%ymm11
    4c11:	c4 e3 fd 00 c0 d8    	vpermq $0xd8,%ymm0,%ymm0
    4c17:	c4 41 7d 70 e4 d8    	vpshufd $0xd8,%ymm12,%ymm12
    4c1d:	c5 dd 73 d4 38       	vpsrlq $0x38,%ymm4,%ymm4
    4c22:	c4 41 7d 70 d3 d8    	vpshufd $0xd8,%ymm11,%ymm10
    4c28:	c4 41 1d 6c d2       	vpunpcklqdq %ymm10,%ymm12,%ymm10
    4c2d:	c4 c1 25 73 d5 30    	vpsrlq $0x30,%ymm13,%ymm11
    4c33:	c5 7d 6f a4 24 a0 00 	vmovdqa 0xa0(%rsp),%ymm12
    4c3a:	00 00 
    4c3c:	c5 fd db 05 3c a5 05 	vpand  0x5a53c(%rip),%ymm0,%ymm0        # 5f180 <KeccakF_RoundConstants+0xe0>
    4c43:	00 
    4c44:	c4 41 4d db d2       	vpand  %ymm10,%ymm6,%ymm10
    4c49:	c4 c1 15 73 d4 30    	vpsrlq $0x30,%ymm12,%ymm13
    4c4f:	c4 43 25 46 e5 20    	vperm2i128 $0x20,%ymm13,%ymm11,%ymm12
    4c55:	c4 43 25 46 dd 31    	vperm2i128 $0x31,%ymm13,%ymm11,%ymm11
    4c5b:	c4 41 7d 70 e4 d8    	vpshufd $0xd8,%ymm12,%ymm12
    4c61:	c4 41 7d 70 db d8    	vpshufd $0xd8,%ymm11,%ymm11
    4c67:	c4 41 1d 6c db       	vpunpcklqdq %ymm11,%ymm12,%ymm11
    4c6c:	c4 41 4d db db       	vpand  %ymm11,%ymm6,%ymm11
    4c71:	c4 42 2d 2b d3       	vpackusdw %ymm11,%ymm10,%ymm10
    4c76:	c4 43 fd 00 d2 d8    	vpermq $0xd8,%ymm10,%ymm10
    4c7c:	c5 2d db 15 fc a4 05 	vpand  0x5a4fc(%rip),%ymm10,%ymm10        # 5f180 <KeccakF_RoundConstants+0xe0>
    4c83:	00 
    4c84:	c4 c1 7d 67 c2       	vpackuswb %ymm10,%ymm0,%ymm0
    4c89:	c4 63 45 46 d3 20    	vperm2i128 $0x20,%ymm3,%ymm7,%ymm10
    4c8f:	c4 e3 45 46 fb 31    	vperm2i128 $0x31,%ymm3,%ymm7,%ymm7
    4c95:	c4 e3 6d 46 dd 20    	vperm2i128 $0x20,%ymm5,%ymm2,%ymm3
    4c9b:	c4 e3 6d 46 d5 31    	vperm2i128 $0x31,%ymm5,%ymm2,%ymm2
    4ca1:	c5 fd 70 ff d8       	vpshufd $0xd8,%ymm7,%ymm7
    4ca6:	c5 fd 70 eb d8       	vpshufd $0xd8,%ymm3,%ymm5
    4cab:	c5 fd 70 d2 d8       	vpshufd $0xd8,%ymm2,%ymm2
    4cb0:	c4 41 7d 70 d2 d8    	vpshufd $0xd8,%ymm10,%ymm10
    4cb6:	c5 2d 6c d7          	vpunpcklqdq %ymm7,%ymm10,%ymm10
    4cba:	c5 d5 6c ea          	vpunpcklqdq %ymm2,%ymm5,%ymm5
    4cbe:	c4 e3 75 46 dc 20    	vperm2i128 $0x20,%ymm4,%ymm1,%ymm3
    4cc4:	c5 fd 6f 7c 24 60    	vmovdqa 0x60(%rsp),%ymm7
    4cca:	c4 c1 4d db d2       	vpand  %ymm10,%ymm6,%ymm2
    4ccf:	c5 cd db ed          	vpand  %ymm5,%ymm6,%ymm5
    4cd3:	c4 e3 75 46 cc 31    	vperm2i128 $0x31,%ymm4,%ymm1,%ymm1
    4cd9:	c4 e2 6d 2b d5       	vpackusdw %ymm5,%ymm2,%ymm2
    4cde:	c5 fd 70 e3 d8       	vpshufd $0xd8,%ymm3,%ymm4
    4ce3:	c5 fd 70 c9 d8       	vpshufd $0xd8,%ymm1,%ymm1
    4ce8:	c5 fd 6f 9c 24 80 00 	vmovdqa 0x80(%rsp),%ymm3
    4cef:	00 00 
    4cf1:	c5 dd 6c e1          	vpunpcklqdq %ymm1,%ymm4,%ymm4
    4cf5:	c4 e3 fd 00 d2 d8    	vpermq $0xd8,%ymm2,%ymm2
    4cfb:	c5 ed db 15 7d a4 05 	vpand  0x5a47d(%rip),%ymm2,%ymm2        # 5f180 <KeccakF_RoundConstants+0xe0>
    4d02:	00 
    4d03:	c5 fd 6f ac 24 a0 00 	vmovdqa 0xa0(%rsp),%ymm5
    4d0a:	00 00 
    4d0c:	c5 f5 73 d3 38       	vpsrlq $0x38,%ymm3,%ymm1
    4d11:	c4 e3 fd 00 c0 d8    	vpermq $0xd8,%ymm0,%ymm0
    4d17:	c5 e5 73 d5 38       	vpsrlq $0x38,%ymm5,%ymm3
    4d1c:	c4 e3 75 46 eb 20    	vperm2i128 $0x20,%ymm3,%ymm1,%ymm5
    4d22:	c4 e3 75 46 cb 31    	vperm2i128 $0x31,%ymm3,%ymm1,%ymm1
    4d28:	c5 fd 70 c9 d8       	vpshufd $0xd8,%ymm1,%ymm1
    4d2d:	c5 fd 70 dd d8       	vpshufd $0xd8,%ymm5,%ymm3
    4d32:	c5 85 60 e8          	vpunpcklbw %ymm0,%ymm15,%ymm5
    4d36:	c5 e5 6c d9          	vpunpcklqdq %ymm1,%ymm3,%ymm3
    4d3a:	c5 cd db cc          	vpand  %ymm4,%ymm6,%ymm1
    4d3e:	c5 05 68 f8          	vpunpckhbw %ymm0,%ymm15,%ymm15
    4d42:	c5 cd db db          	vpand  %ymm3,%ymm6,%ymm3
    4d46:	c4 c3 55 46 e7 20    	vperm2i128 $0x20,%ymm15,%ymm5,%ymm4
    4d4c:	c4 43 55 46 ff 31    	vperm2i128 $0x31,%ymm15,%ymm5,%ymm15
    4d52:	c4 e2 75 2b cb       	vpackusdw %ymm3,%ymm1,%ymm1
    4d57:	c4 e3 fd 00 c9 d8    	vpermq $0xd8,%ymm1,%ymm1
    4d5d:	c5 f5 db 0d 1b a4 05 	vpand  0x5a41b(%rip),%ymm1,%ymm1        # 5f180 <KeccakF_RoundConstants+0xe0>
    4d64:	00 
    4d65:	c5 ed 67 c9          	vpackuswb %ymm1,%ymm2,%ymm1
    4d69:	c4 c1 45 60 d1       	vpunpcklbw %ymm9,%ymm7,%ymm2
    4d6e:	c4 41 45 68 c9       	vpunpckhbw %ymm9,%ymm7,%ymm9
    4d73:	c5 fd 6f 7c 24 40    	vmovdqa 0x40(%rsp),%ymm7
    4d79:	c4 e3 fd 00 c9 d8    	vpermq $0xd8,%ymm1,%ymm1
    4d7f:	c4 c3 6d 46 d9 20    	vperm2i128 $0x20,%ymm9,%ymm2,%ymm3
    4d85:	c4 43 6d 46 c9 31    	vperm2i128 $0x31,%ymm9,%ymm2,%ymm9
    4d8b:	c5 8d 60 e9          	vpunpcklbw %ymm1,%ymm14,%ymm5
    4d8f:	c4 41 45 60 d0       	vpunpcklbw %ymm8,%ymm7,%ymm10
    4d94:	c5 0d 68 f1          	vpunpckhbw %ymm1,%ymm14,%ymm14
    4d98:	c4 41 45 68 c0       	vpunpckhbw %ymm8,%ymm7,%ymm8
    4d9d:	c4 c3 55 46 c6 20    	vperm2i128 $0x20,%ymm14,%ymm5,%ymm0
    4da3:	c5 e5 68 cc          	vpunpckhbw %ymm4,%ymm3,%ymm1
    4da7:	c4 c3 2d 46 d0 20    	vperm2i128 $0x20,%ymm8,%ymm10,%ymm2
    4dad:	c4 43 55 46 f6 31    	vperm2i128 $0x31,%ymm14,%ymm5,%ymm14
    4db3:	c5 e5 60 ec          	vpunpcklbw %ymm4,%ymm3,%ymm5
    4db7:	c5 ed 60 f8          	vpunpcklbw %ymm0,%ymm2,%ymm7
    4dbb:	c5 ed 68 c0          	vpunpckhbw %ymm0,%ymm2,%ymm0
    4dbf:	c4 43 2d 46 d0 31    	vperm2i128 $0x31,%ymm8,%ymm10,%ymm10
    4dc5:	c4 e3 45 46 d0 20    	vperm2i128 $0x20,%ymm0,%ymm7,%ymm2
    4dcb:	c4 63 55 46 c1 20    	vperm2i128 $0x20,%ymm1,%ymm5,%ymm8
    4dd1:	c4 e3 45 46 f8 31    	vperm2i128 $0x31,%ymm0,%ymm7,%ymm7
    4dd7:	c5 bd 60 e2          	vpunpcklbw %ymm2,%ymm8,%ymm4
    4ddb:	c4 c1 2d 60 c6       	vpunpcklbw %ymm14,%ymm10,%ymm0
    4de0:	c4 e3 55 46 e9 31    	vperm2i128 $0x31,%ymm1,%ymm5,%ymm5
    4de6:	c5 3d 68 c2          	vpunpckhbw %ymm2,%ymm8,%ymm8
    4dea:	c4 c1 35 60 cf       	vpunpcklbw %ymm15,%ymm9,%ymm1
    4def:	c4 41 2d 68 f6       	vpunpckhbw %ymm14,%ymm10,%ymm14
    4df4:	c4 41 35 68 cf       	vpunpckhbw %ymm15,%ymm9,%ymm9
    4df9:	c4 c3 75 46 d9 20    	vperm2i128 $0x20,%ymm9,%ymm1,%ymm3
    4dff:	c4 c3 75 46 c9 31    	vperm2i128 $0x31,%ymm9,%ymm1,%ymm1
    4e05:	c4 43 7d 46 ce 20    	vperm2i128 $0x20,%ymm14,%ymm0,%ymm9
    4e0b:	c4 43 7d 46 f6 31    	vperm2i128 $0x31,%ymm14,%ymm0,%ymm14
    4e11:	c4 c3 5d 46 c0 20    	vperm2i128 $0x20,%ymm8,%ymm4,%ymm0
    4e17:	c4 c3 5d 46 e0 31    	vperm2i128 $0x31,%ymm8,%ymm4,%ymm4
    4e1d:	c5 f8 11 a2 20 ff ff 	vmovups %xmm4,-0xe0(%rdx)
    4e24:	ff 
    4e25:	c4 c1 65 60 d1       	vpunpcklbw %ymm9,%ymm3,%ymm2
    4e2a:	c4 c1 65 68 d9       	vpunpckhbw %ymm9,%ymm3,%ymm3
    4e2f:	c4 e3 7d 39 a2 30 ff 	vextracti128 $0x1,%ymm4,-0xd0(%rdx)
    4e36:	ff ff 01 
    4e39:	c5 d5 60 e7          	vpunpcklbw %ymm7,%ymm5,%ymm4
    4e3d:	c5 d5 68 ef          	vpunpckhbw %ymm7,%ymm5,%ymm5
    4e41:	c5 f8 11 82 00 ff ff 	vmovups %xmm0,-0x100(%rdx)
    4e48:	ff 
    4e49:	c4 e3 7d 39 82 10 ff 	vextracti128 $0x1,%ymm0,-0xf0(%rdx)
    4e50:	ff ff 01 
    4e53:	c4 e3 5d 46 c5 20    	vperm2i128 $0x20,%ymm5,%ymm4,%ymm0
    4e59:	c4 e3 5d 46 e5 31    	vperm2i128 $0x31,%ymm5,%ymm4,%ymm4
    4e5f:	c5 f8 11 82 40 ff ff 	vmovups %xmm0,-0xc0(%rdx)
    4e66:	ff 
    4e67:	c4 e3 7d 39 82 50 ff 	vextracti128 $0x1,%ymm0,-0xb0(%rdx)
    4e6e:	ff ff 01 
    4e71:	c4 e3 6d 46 c3 20    	vperm2i128 $0x20,%ymm3,%ymm2,%ymm0
    4e77:	c4 e3 6d 46 d3 31    	vperm2i128 $0x31,%ymm3,%ymm2,%ymm2
    4e7d:	c5 f8 11 42 80       	vmovups %xmm0,-0x80(%rdx)
    4e82:	c4 e3 7d 39 42 90 01 	vextracti128 $0x1,%ymm0,-0x70(%rdx)
    4e89:	c4 c1 75 60 c6       	vpunpcklbw %ymm14,%ymm1,%ymm0
    4e8e:	c4 c1 75 68 ce       	vpunpckhbw %ymm14,%ymm1,%ymm1
    4e93:	c5 f8 11 52 a0       	vmovups %xmm2,-0x60(%rdx)
    4e98:	c4 e3 7d 39 52 b0 01 	vextracti128 $0x1,%ymm2,-0x50(%rdx)
    4e9f:	c4 e3 7d 46 d1 20    	vperm2i128 $0x20,%ymm1,%ymm0,%ymm2
    4ea5:	c4 e3 7d 46 c1 31    	vperm2i128 $0x31,%ymm1,%ymm0,%ymm0
    4eab:	c5 f8 11 a2 60 ff ff 	vmovups %xmm4,-0xa0(%rdx)
    4eb2:	ff 
    4eb3:	c4 e3 7d 39 52 d0 01 	vextracti128 $0x1,%ymm2,-0x30(%rdx)
    4eba:	c4 e3 7d 39 a2 70 ff 	vextracti128 $0x1,%ymm4,-0x90(%rdx)
    4ec1:	ff ff 01 
    4ec4:	c4 e3 7d 39 42 f0 01 	vextracti128 $0x1,%ymm0,-0x10(%rdx)
    4ecb:	c5 f8 11 52 c0       	vmovups %xmm2,-0x40(%rdx)
    4ed0:	c5 f8 11 42 e0       	vmovups %xmm0,-0x20(%rdx)
    4ed5:	4c 39 f0             	cmp    %r14,%rax
    4ed8:	0f 85 a2 f8 ff ff    	jne    4780 <keccak_squeezeblocks+0xd0>
    4ede:	44 8b 4c 24 30       	mov    0x30(%rsp),%r9d
    4ee3:	45 39 cf             	cmp    %r9d,%r15d
    4ee6:	74 72                	je     4f5a <keccak_squeezeblocks+0x8aa>
    4ee8:	48 8b 44 24 28       	mov    0x28(%rsp),%rax
    4eed:	4c 8b 54 24 20       	mov    0x20(%rsp),%r10
    4ef2:	49 8d 54 05 00       	lea    0x0(%r13,%rax,1),%rdx
    4ef7:	66 0f 1f 84 00 00 00 	nopw   0x0(%rax,%rax,1)
    4efe:	00 00 
    4f00:	49 8b 02             	mov    (%r10),%rax
    4f03:	41 83 c1 01          	add    $0x1,%r9d
    4f07:	49 83 c2 08          	add    $0x8,%r10
    4f0b:	48 83 c2 08          	add    $0x8,%rdx
    4f0f:	48 89 c1             	mov    %rax,%rcx
    4f12:	88 42 f8             	mov    %al,-0x8(%rdx)
    4f15:	48 c1 e9 08          	shr    $0x8,%rcx
    4f19:	88 4a f9             	mov    %cl,-0x7(%rdx)
    4f1c:	48 89 c1             	mov    %rax,%rcx
    4f1f:	48 c1 e9 10          	shr    $0x10,%rcx
    4f23:	88 4a fa             	mov    %cl,-0x6(%rdx)
    4f26:	48 89 c1             	mov    %rax,%rcx
    4f29:	48 c1 e9 18          	shr    $0x18,%rcx
    4f2d:	88 4a fb             	mov    %cl,-0x5(%rdx)
    4f30:	48 89 c1             	mov    %rax,%rcx
    4f33:	48 c1 e9 20          	shr    $0x20,%rcx
    4f37:	88 4a fc             	mov    %cl,-0x4(%rdx)
    4f3a:	48 89 c1             	mov    %rax,%rcx
    4f3d:	48 c1 e9 28          	shr    $0x28,%rcx
    4f41:	88 4a fd             	mov    %cl,-0x3(%rdx)
    4f44:	48 89 c1             	mov    %rax,%rcx
    4f47:	48 c1 e8 38          	shr    $0x38,%rax
    4f4b:	48 c1 e9 30          	shr    $0x30,%rcx
    4f4f:	88 42 ff             	mov    %al,-0x1(%rdx)
    4f52:	88 4a fe             	mov    %cl,-0x2(%rdx)
    4f55:	45 39 cf             	cmp    %r9d,%r15d
    4f58:	77 a6                	ja     4f00 <keccak_squeezeblocks+0x850>
    4f5a:	4c 03 6c 24 38       	add    0x38(%rsp),%r13
    4f5f:	48 83 eb 01          	sub    $0x1,%rbx
    4f63:	74 7c                	je     4fe1 <keccak_squeezeblocks+0x931>
    4f65:	c5 f8 77             	vzeroupper 
    4f68:	e9 cb f7 ff ff       	jmpq   4738 <keccak_squeezeblocks+0x88>
    4f6d:	48 8b 74 24 18       	mov    0x18(%rsp),%rsi
    4f72:	4c 89 e8             	mov    %r13,%rax
    4f75:	4d 89 e1             	mov    %r12,%r9
    4f78:	4e 8d 14 2e          	lea    (%rsi,%r13,1),%r10
    4f7c:	0f 1f 40 00          	nopl   0x0(%rax)
    4f80:	49 8b 11             	mov    (%r9),%rdx
    4f83:	48 83 c0 08          	add    $0x8,%rax
    4f87:	49 83 c1 08          	add    $0x8,%r9
    4f8b:	48 89 d1             	mov    %rdx,%rcx
    4f8e:	88 50 f8             	mov    %dl,-0x8(%rax)
    4f91:	48 c1 e9 08          	shr    $0x8,%rcx
    4f95:	88 48 f9             	mov    %cl,-0x7(%rax)
    4f98:	48 89 d1             	mov    %rdx,%rcx
    4f9b:	48 c1 e9 10          	shr    $0x10,%rcx
    4f9f:	88 48 fa             	mov    %cl,-0x6(%rax)
    4fa2:	48 89 d1             	mov    %rdx,%rcx
    4fa5:	48 c1 e9 18          	shr    $0x18,%rcx
    4fa9:	88 48 fb             	mov    %cl,-0x5(%rax)
    4fac:	48 89 d1             	mov    %rdx,%rcx
    4faf:	48 c1 e9 20          	shr    $0x20,%rcx
    4fb3:	88 48 fc             	mov    %cl,-0x4(%rax)
    4fb6:	48 89 d1             	mov    %rdx,%rcx
    4fb9:	48 c1 e9 28          	shr    $0x28,%rcx
    4fbd:	88 48 fd             	mov    %cl,-0x3(%rax)
    4fc0:	48 89 d1             	mov    %rdx,%rcx
    4fc3:	48 c1 ea 38          	shr    $0x38,%rdx
    4fc7:	48 c1 e9 30          	shr    $0x30,%rcx
    4fcb:	88 50 ff             	mov    %dl,-0x1(%rax)
    4fce:	88 48 fe             	mov    %cl,-0x2(%rax)
    4fd1:	4c 39 d0             	cmp    %r10,%rax
    4fd4:	75 aa                	jne    4f80 <keccak_squeezeblocks+0x8d0>
    4fd6:	4c 03 6c 24 38       	add    0x38(%rsp),%r13
    4fdb:	48 83 eb 01          	sub    $0x1,%rbx
    4fdf:	75 84                	jne    4f65 <keccak_squeezeblocks+0x8b5>
    4fe1:	c5 f8 77             	vzeroupper 
    4fe4:	48 8d 65 d8          	lea    -0x28(%rbp),%rsp
    4fe8:	5b                   	pop    %rbx
    4fe9:	41 5c                	pop    %r12
    4feb:	41 5d                	pop    %r13
    4fed:	41 5e                	pop    %r14
    4fef:	41 5f                	pop    %r15
    4ff1:	5d                   	pop    %rbp
    4ff2:	c3                   	retq   
    4ff3:	c3                   	retq   
    4ff4:	66 66 2e 0f 1f 84 00 	data16 nopw %cs:0x0(%rax,%rax,1)
    4ffb:	00 00 00 00 
    4fff:	90                   	nop

0000000000005000 <shake128>:
    5000:	f3 0f 1e fa          	endbr64 
    5004:	41 57                	push   %r15
    5006:	49 89 c8             	mov    %rcx,%r8
    5009:	b9 19 00 00 00       	mov    $0x19,%ecx
    500e:	41 56                	push   %r14
    5010:	49 89 fe             	mov    %rdi,%r14
    5013:	41 55                	push   %r13
    5015:	41 54                	push   %r12
    5017:	49 89 f4             	mov    %rsi,%r12
    501a:	48 89 d6             	mov    %rdx,%rsi
    501d:	48 ba 31 0c c3 30 0c 	movabs $0xc30c30c30c30c31,%rdx
    5024:	c3 30 0c 
    5027:	55                   	push   %rbp
    5028:	4d 89 e5             	mov    %r12,%r13
    502b:	53                   	push   %rbx
    502c:	49 c1 ed 03          	shr    $0x3,%r13
    5030:	48 81 ec 98 01 00 00 	sub    $0x198,%rsp
    5037:	64 48 8b 04 25 28 00 	mov    %fs:0x28,%rax
    503e:	00 00 
    5040:	48 89 84 24 88 01 00 	mov    %rax,0x188(%rsp)
    5047:	00 
    5048:	31 c0                	xor    %eax,%eax
    504a:	4c 8d 7c 24 10       	lea    0x10(%rsp),%r15
    504f:	4c 89 e8             	mov    %r13,%rax
    5052:	48 f7 e2             	mul    %rdx
    5055:	4c 89 ff             	mov    %r15,%rdi
    5058:	31 c0                	xor    %eax,%eax
    505a:	f3 48 ab             	rep stos %rax,%es:(%rdi)
    505d:	b9 1f 00 00 00       	mov    $0x1f,%ecx
    5062:	4c 89 ff             	mov    %r15,%rdi
    5065:	49 89 d5             	mov    %rdx,%r13
    5068:	4c 89 c2             	mov    %r8,%rdx
    506b:	e8 10 cf ff ff       	callq  1f80 <keccak_absorb.constprop.0>
    5070:	49 81 fc a7 00 00 00 	cmp    $0xa7,%r12
    5077:	0f 86 b7 05 00 00    	jbe    5634 <shake128+0x634>
    507d:	4b 8d 44 ad 00       	lea    0x0(%r13,%r13,4),%rax
    5082:	c5 79 6f 05 e6 a0 05 	vmovdqa 0x5a0e6(%rip),%xmm8        # 5f170 <KeccakF_RoundConstants+0xd0>
    5089:	00 
    508a:	c5 79 6f 0d ce a0 05 	vmovdqa 0x5a0ce(%rip),%xmm9        # 5f160 <KeccakF_RoundConstants+0xc0>
    5091:	00 
    5092:	4c 89 f3             	mov    %r14,%rbx
    5095:	49 8d 44 85 00       	lea    0x0(%r13,%rax,4),%rax
    509a:	49 8d 2c c6          	lea    (%r14,%rax,8),%rbp
    509e:	66 90                	xchg   %ax,%ax
    50a0:	4c 89 ff             	mov    %r15,%rdi
    50a3:	e8 68 c5 ff ff       	callq  1610 <KeccakF1600_StatePermute>
    50a8:	c5 79 6f 64 24 10    	vmovdqa 0x10(%rsp),%xmm12
    50ae:	c5 79 6f 54 24 30    	vmovdqa 0x30(%rsp),%xmm10
    50b4:	c5 18 c6 7c 24 20 88 	vshufps $0x88,0x20(%rsp),%xmm12,%xmm15
    50bb:	c5 28 c6 5c 24 40 88 	vshufps $0x88,0x40(%rsp),%xmm10,%xmm11
    50c2:	c4 c1 39 db cf       	vpand  %xmm15,%xmm8,%xmm1
    50c7:	c4 c1 39 db c3       	vpand  %xmm11,%xmm8,%xmm0
    50cc:	c5 f9 6f 5c 24 50    	vmovdqa 0x50(%rsp),%xmm3
    50d2:	c5 f9 6f 7c 24 70    	vmovdqa 0x70(%rsp),%xmm7
    50d8:	c4 e2 71 2b c8       	vpackusdw %xmm0,%xmm1,%xmm1
    50dd:	c4 c1 69 72 d7 10    	vpsrld $0x10,%xmm15,%xmm2
    50e3:	c5 e0 c6 6c 24 60 88 	vshufps $0x88,0x60(%rsp),%xmm3,%xmm5
    50ea:	c5 b9 db e5          	vpand  %xmm5,%xmm8,%xmm4
    50ee:	c4 c1 01 72 d7 18    	vpsrld $0x18,%xmm15,%xmm15
    50f4:	c5 31 db f1          	vpand  %xmm1,%xmm9,%xmm14
    50f8:	c5 40 c6 ac 24 80 00 	vshufps $0x88,0x80(%rsp),%xmm7,%xmm13
    50ff:	00 00 88 
    5102:	c4 c1 39 db c5       	vpand  %xmm13,%xmm8,%xmm0
    5107:	c5 f1 71 d1 08       	vpsrlw $0x8,%xmm1,%xmm1
    510c:	c4 41 39 db ff       	vpand  %xmm15,%xmm8,%xmm15
    5111:	c4 e2 59 2b e0       	vpackusdw %xmm0,%xmm4,%xmm4
    5116:	c5 b1 db c9          	vpand  %xmm1,%xmm9,%xmm1
    511a:	c5 b1 db c4          	vpand  %xmm4,%xmm9,%xmm0
    511e:	c5 d9 71 d4 08       	vpsrlw $0x8,%xmm4,%xmm4
    5123:	c5 09 67 f0          	vpackuswb %xmm0,%xmm14,%xmm14
    5127:	c4 c1 79 72 d3 10    	vpsrld $0x10,%xmm11,%xmm0
    512d:	c5 b1 db e4          	vpand  %xmm4,%xmm9,%xmm4
    5131:	c5 f1 67 f4          	vpackuswb %xmm4,%xmm1,%xmm6
    5135:	c5 b9 db c0          	vpand  %xmm0,%xmm8,%xmm0
    5139:	c5 b9 db ca          	vpand  %xmm2,%xmm8,%xmm1
    513d:	c4 e2 71 2b d0       	vpackusdw %xmm0,%xmm1,%xmm2
    5142:	c5 f9 72 d5 10       	vpsrld $0x10,%xmm5,%xmm0
    5147:	c4 c1 71 72 d5 10    	vpsrld $0x10,%xmm13,%xmm1
    514d:	c5 b9 db c0          	vpand  %xmm0,%xmm8,%xmm0
    5151:	c5 b1 db d2          	vpand  %xmm2,%xmm9,%xmm2
    5155:	c4 c1 21 72 d3 18    	vpsrld $0x18,%xmm11,%xmm11
    515b:	c5 d1 72 d5 18       	vpsrld $0x18,%xmm5,%xmm5
    5160:	c5 b9 db c9          	vpand  %xmm1,%xmm8,%xmm1
    5164:	c4 e2 79 2b c9       	vpackusdw %xmm1,%xmm0,%xmm1
    5169:	c4 c1 11 72 d5 18    	vpsrld $0x18,%xmm13,%xmm13
    516f:	c4 41 39 db db       	vpand  %xmm11,%xmm8,%xmm11
    5174:	c5 b1 db c1          	vpand  %xmm1,%xmm9,%xmm0
    5178:	c5 f9 6f 4c 24 20    	vmovdqa 0x20(%rsp),%xmm1
    517e:	c4 41 39 db ed       	vpand  %xmm13,%xmm8,%xmm13
    5183:	c5 b9 db ed          	vpand  %xmm5,%xmm8,%xmm5
    5187:	c5 e9 67 c0          	vpackuswb %xmm0,%xmm2,%xmm0
    518b:	c4 c1 69 73 d4 20    	vpsrlq $0x20,%xmm12,%xmm2
    5191:	c4 42 01 2b fb       	vpackusdw %xmm11,%xmm15,%xmm15
    5196:	c5 f1 73 d1 20       	vpsrlq $0x20,%xmm1,%xmm1
    519b:	c4 c2 51 2b ed       	vpackusdw %xmm13,%xmm5,%xmm5
    51a0:	c4 41 31 db ff       	vpand  %xmm15,%xmm9,%xmm15
    51a5:	c5 e8 c6 d1 88       	vshufps $0x88,%xmm1,%xmm2,%xmm2
    51aa:	c5 f9 6f 4c 24 40    	vmovdqa 0x40(%rsp),%xmm1
    51b0:	c5 b1 db ed          	vpand  %xmm5,%xmm9,%xmm5
    51b4:	c5 b9 db d2          	vpand  %xmm2,%xmm8,%xmm2
    51b8:	c5 a1 73 d7 20       	vpsrlq $0x20,%xmm7,%xmm11
    51bd:	c5 91 73 d7 28       	vpsrlq $0x28,%xmm7,%xmm13
    51c2:	c5 81 67 e5          	vpackuswb %xmm5,%xmm15,%xmm4
    51c6:	c5 f1 73 d1 20       	vpsrlq $0x20,%xmm1,%xmm1
    51cb:	c4 c1 51 73 d2 20    	vpsrlq $0x20,%xmm10,%xmm5
    51d1:	c5 d0 c6 c9 88       	vshufps $0x88,%xmm1,%xmm5,%xmm1
    51d6:	c5 b9 db e9          	vpand  %xmm1,%xmm8,%xmm5
    51da:	c5 f9 6f 4c 24 60    	vmovdqa 0x60(%rsp),%xmm1
    51e0:	c5 81 73 d7 30       	vpsrlq $0x30,%xmm7,%xmm15
    51e5:	c4 e2 69 2b ed       	vpackusdw %xmm5,%xmm2,%xmm5
    51ea:	c5 e9 73 d3 20       	vpsrlq $0x20,%xmm3,%xmm2
    51ef:	c5 f1 73 d1 20       	vpsrlq $0x20,%xmm1,%xmm1
    51f4:	c5 c1 73 d7 38       	vpsrlq $0x38,%xmm7,%xmm7
    51f9:	c5 b1 db ed          	vpand  %xmm5,%xmm9,%xmm5
    51fd:	c5 e8 c6 d1 88       	vshufps $0x88,%xmm1,%xmm2,%xmm2
    5202:	c5 b9 db d2          	vpand  %xmm2,%xmm8,%xmm2
    5206:	c5 f9 6f 8c 24 80 00 	vmovdqa 0x80(%rsp),%xmm1
    520d:	00 00 
    520f:	c5 f1 73 d1 20       	vpsrlq $0x20,%xmm1,%xmm1
    5214:	c5 a0 c6 c9 88       	vshufps $0x88,%xmm1,%xmm11,%xmm1
    5219:	c5 b9 db c9          	vpand  %xmm1,%xmm8,%xmm1
    521d:	c4 c1 21 73 d4 28    	vpsrlq $0x28,%xmm12,%xmm11
    5223:	c4 e2 69 2b c9       	vpackusdw %xmm1,%xmm2,%xmm1
    5228:	c5 b1 db d1          	vpand  %xmm1,%xmm9,%xmm2
    522c:	c5 d1 67 d2          	vpackuswb %xmm2,%xmm5,%xmm2
    5230:	c5 f9 6f 6c 24 20    	vmovdqa 0x20(%rsp),%xmm5
    5236:	c5 f1 73 d5 28       	vpsrlq $0x28,%xmm5,%xmm1
    523b:	c5 f9 6f 6c 24 40    	vmovdqa 0x40(%rsp),%xmm5
    5241:	c5 a0 c6 c9 88       	vshufps $0x88,%xmm1,%xmm11,%xmm1
    5246:	c4 c1 21 73 d2 28    	vpsrlq $0x28,%xmm10,%xmm11
    524c:	c5 b9 db c9          	vpand  %xmm1,%xmm8,%xmm1
    5250:	c5 d1 73 d5 28       	vpsrlq $0x28,%xmm5,%xmm5
    5255:	c5 a0 c6 ed 88       	vshufps $0x88,%xmm5,%xmm11,%xmm5
    525a:	c5 39 db dd          	vpand  %xmm5,%xmm8,%xmm11
    525e:	c5 d1 73 d3 28       	vpsrlq $0x28,%xmm3,%xmm5
    5263:	c4 42 71 2b db       	vpackusdw %xmm11,%xmm1,%xmm11
    5268:	c5 f9 6f 4c 24 60    	vmovdqa 0x60(%rsp),%xmm1
    526e:	c4 41 31 db db       	vpand  %xmm11,%xmm9,%xmm11
    5273:	c5 f1 73 d1 28       	vpsrlq $0x28,%xmm1,%xmm1
    5278:	c5 d0 c6 c9 88       	vshufps $0x88,%xmm1,%xmm5,%xmm1
    527d:	c5 b9 db c9          	vpand  %xmm1,%xmm8,%xmm1
    5281:	c5 f9 6f ac 24 80 00 	vmovdqa 0x80(%rsp),%xmm5
    5288:	00 00 
    528a:	c5 d1 73 d5 28       	vpsrlq $0x28,%xmm5,%xmm5
    528f:	c5 90 c6 ed 88       	vshufps $0x88,%xmm5,%xmm13,%xmm5
    5294:	c5 b9 db ed          	vpand  %xmm5,%xmm8,%xmm5
    5298:	c4 c1 11 73 d4 30    	vpsrlq $0x30,%xmm12,%xmm13
    529e:	c4 e2 71 2b ed       	vpackusdw %xmm5,%xmm1,%xmm5
    52a3:	c4 c1 19 73 d4 38    	vpsrlq $0x38,%xmm12,%xmm12
    52a9:	c5 b1 db cd          	vpand  %xmm5,%xmm9,%xmm1
    52ad:	c5 f9 6f 6c 24 20    	vmovdqa 0x20(%rsp),%xmm5
    52b3:	c5 a1 67 c9          	vpackuswb %xmm1,%xmm11,%xmm1
    52b7:	c4 c1 21 73 d2 30    	vpsrlq $0x30,%xmm10,%xmm11
    52bd:	c5 d1 73 d5 30       	vpsrlq $0x30,%xmm5,%xmm5
    52c2:	c4 c1 29 73 d2 38    	vpsrlq $0x38,%xmm10,%xmm10
    52c8:	c5 10 c6 ed 88       	vshufps $0x88,%xmm5,%xmm13,%xmm13
    52cd:	c5 f9 6f 6c 24 40    	vmovdqa 0x40(%rsp),%xmm5
    52d3:	c4 41 39 db ed       	vpand  %xmm13,%xmm8,%xmm13
    52d8:	c5 d1 73 d5 30       	vpsrlq $0x30,%xmm5,%xmm5
    52dd:	c5 a0 c6 ed 88       	vshufps $0x88,%xmm5,%xmm11,%xmm5
    52e2:	c5 39 db dd          	vpand  %xmm5,%xmm8,%xmm11
    52e6:	c5 f9 6f 6c 24 60    	vmovdqa 0x60(%rsp),%xmm5
    52ec:	c4 42 11 2b db       	vpackusdw %xmm11,%xmm13,%xmm11
    52f1:	c5 91 73 d3 30       	vpsrlq $0x30,%xmm3,%xmm13
    52f6:	c5 d1 73 d5 30       	vpsrlq $0x30,%xmm5,%xmm5
    52fb:	c5 e1 73 d3 38       	vpsrlq $0x38,%xmm3,%xmm3
    5300:	c4 41 31 db db       	vpand  %xmm11,%xmm9,%xmm11
    5305:	c5 10 c6 ed 88       	vshufps $0x88,%xmm5,%xmm13,%xmm13
    530a:	c4 41 39 db ed       	vpand  %xmm13,%xmm8,%xmm13
    530f:	c5 f9 6f ac 24 80 00 	vmovdqa 0x80(%rsp),%xmm5
    5316:	00 00 
    5318:	c5 d1 73 d5 30       	vpsrlq $0x30,%xmm5,%xmm5
    531d:	c5 80 c6 ed 88       	vshufps $0x88,%xmm5,%xmm15,%xmm5
    5322:	c5 b9 db ed          	vpand  %xmm5,%xmm8,%xmm5
    5326:	c5 79 6f 7c 24 20    	vmovdqa 0x20(%rsp),%xmm15
    532c:	c4 e2 11 2b ed       	vpackusdw %xmm5,%xmm13,%xmm5
    5331:	c5 49 60 e9          	vpunpcklbw %xmm1,%xmm6,%xmm13
    5335:	c5 c9 68 c9          	vpunpckhbw %xmm1,%xmm6,%xmm1
    5339:	c5 b1 db ed          	vpand  %xmm5,%xmm9,%xmm5
    533d:	c5 a1 67 ed          	vpackuswb %xmm5,%xmm11,%xmm5
    5341:	c4 c1 21 73 d7 38    	vpsrlq $0x38,%xmm15,%xmm11
    5347:	c5 79 6f 7c 24 40    	vmovdqa 0x40(%rsp),%xmm15
    534d:	c4 41 18 c6 e3 88    	vshufps $0x88,%xmm11,%xmm12,%xmm12
    5353:	c4 41 39 db e4       	vpand  %xmm12,%xmm8,%xmm12
    5358:	c4 c1 21 73 d7 38    	vpsrlq $0x38,%xmm15,%xmm11
    535e:	c5 79 6f 7c 24 60    	vmovdqa 0x60(%rsp),%xmm15
    5364:	c4 41 28 c6 d3 88    	vshufps $0x88,%xmm11,%xmm10,%xmm10
    536a:	c4 41 39 db d2       	vpand  %xmm10,%xmm8,%xmm10
    536f:	c4 42 19 2b e2       	vpackusdw %xmm10,%xmm12,%xmm12
    5374:	c4 c1 29 73 d7 38    	vpsrlq $0x38,%xmm15,%xmm10
    537a:	c4 c1 60 c6 da 88    	vshufps $0x88,%xmm10,%xmm3,%xmm3
    5380:	c5 b9 db db          	vpand  %xmm3,%xmm8,%xmm3
    5384:	c4 41 31 db e4       	vpand  %xmm12,%xmm9,%xmm12
    5389:	c5 79 6f 94 24 80 00 	vmovdqa 0x80(%rsp),%xmm10
    5390:	00 00 
    5392:	c4 c1 29 73 d2 38    	vpsrlq $0x38,%xmm10,%xmm10
    5398:	c4 c1 40 c6 fa 88    	vshufps $0x88,%xmm10,%xmm7,%xmm7
    539e:	c5 b9 db ff          	vpand  %xmm7,%xmm8,%xmm7
    53a2:	c5 79 60 d5          	vpunpcklbw %xmm5,%xmm0,%xmm10
    53a6:	c5 f9 68 ed          	vpunpckhbw %xmm5,%xmm0,%xmm5
    53aa:	c4 e2 61 2b df       	vpackusdw %xmm7,%xmm3,%xmm3
    53af:	c5 b1 db db          	vpand  %xmm3,%xmm9,%xmm3
    53b3:	c5 19 67 e3          	vpackuswb %xmm3,%xmm12,%xmm12
    53b7:	c5 89 60 da          	vpunpcklbw %xmm2,%xmm14,%xmm3
    53bb:	c5 89 68 d2          	vpunpckhbw %xmm2,%xmm14,%xmm2
    53bf:	c4 c1 59 60 fc       	vpunpcklbw %xmm12,%xmm4,%xmm7
    53c4:	c4 41 61 60 fa       	vpunpcklbw %xmm10,%xmm3,%xmm15
    53c9:	c4 c1 59 68 e4       	vpunpckhbw %xmm12,%xmm4,%xmm4
    53ce:	c4 41 61 68 d2       	vpunpckhbw %xmm10,%xmm3,%xmm10
    53d3:	c5 e9 60 dd          	vpunpcklbw %xmm5,%xmm2,%xmm3
    53d7:	c5 e9 68 ed          	vpunpckhbw %xmm5,%xmm2,%xmm5
    53db:	c5 91 60 d7          	vpunpcklbw %xmm7,%xmm13,%xmm2
    53df:	c5 91 68 ff          	vpunpckhbw %xmm7,%xmm13,%xmm7
    53e3:	c5 f1 60 c4          	vpunpcklbw %xmm4,%xmm1,%xmm0
    53e7:	c5 f1 68 cc          	vpunpckhbw %xmm4,%xmm1,%xmm1
    53eb:	c5 81 60 e2          	vpunpcklbw %xmm2,%xmm15,%xmm4
    53ef:	c5 01 68 fa          	vpunpckhbw %xmm2,%xmm15,%xmm15
    53f3:	c5 a9 60 d7          	vpunpcklbw %xmm7,%xmm10,%xmm2
    53f7:	c5 29 68 d7          	vpunpckhbw %xmm7,%xmm10,%xmm10
    53fb:	c5 e1 68 f8          	vpunpckhbw %xmm0,%xmm3,%xmm7
    53ff:	c5 f8 11 23          	vmovups %xmm4,(%rbx)
    5403:	c5 f8 11 53 20       	vmovups %xmm2,0x20(%rbx)
    5408:	c5 e1 60 d0          	vpunpcklbw %xmm0,%xmm3,%xmm2
    540c:	c5 d1 60 c1          	vpunpcklbw %xmm1,%xmm5,%xmm0
    5410:	c5 d1 68 e9          	vpunpckhbw %xmm1,%xmm5,%xmm5
    5414:	c5 78 11 7b 10       	vmovups %xmm15,0x10(%rbx)
    5419:	c5 78 11 53 30       	vmovups %xmm10,0x30(%rbx)
    541e:	c5 f8 11 53 40       	vmovups %xmm2,0x40(%rbx)
    5423:	c5 f8 11 7b 50       	vmovups %xmm7,0x50(%rbx)
    5428:	c5 f8 11 43 60       	vmovups %xmm0,0x60(%rbx)
    542d:	c5 f8 11 6b 70       	vmovups %xmm5,0x70(%rbx)
    5432:	48 8b 84 24 90 00 00 	mov    0x90(%rsp),%rax
    5439:	00 
    543a:	48 89 c2             	mov    %rax,%rdx
    543d:	88 83 80 00 00 00    	mov    %al,0x80(%rbx)
    5443:	48 c1 ea 08          	shr    $0x8,%rdx
    5447:	88 93 81 00 00 00    	mov    %dl,0x81(%rbx)
    544d:	48 89 c2             	mov    %rax,%rdx
    5450:	48 c1 ea 10          	shr    $0x10,%rdx
    5454:	88 93 82 00 00 00    	mov    %dl,0x82(%rbx)
    545a:	48 89 c2             	mov    %rax,%rdx
    545d:	48 c1 ea 18          	shr    $0x18,%rdx
    5461:	88 93 83 00 00 00    	mov    %dl,0x83(%rbx)
    5467:	48 89 c2             	mov    %rax,%rdx
    546a:	48 c1 ea 20          	shr    $0x20,%rdx
    546e:	88 93 84 00 00 00    	mov    %dl,0x84(%rbx)
    5474:	48 89 c2             	mov    %rax,%rdx
    5477:	48 c1 ea 28          	shr    $0x28,%rdx
    547b:	88 93 85 00 00 00    	mov    %dl,0x85(%rbx)
    5481:	48 89 c2             	mov    %rax,%rdx
    5484:	48 c1 e8 38          	shr    $0x38,%rax
    5488:	88 83 87 00 00 00    	mov    %al,0x87(%rbx)
    548e:	48 8b 84 24 98 00 00 	mov    0x98(%rsp),%rax
    5495:	00 
    5496:	48 c1 ea 30          	shr    $0x30,%rdx
    549a:	88 93 86 00 00 00    	mov    %dl,0x86(%rbx)
    54a0:	48 89 c2             	mov    %rax,%rdx
    54a3:	88 83 88 00 00 00    	mov    %al,0x88(%rbx)
    54a9:	48 c1 ea 08          	shr    $0x8,%rdx
    54ad:	88 93 89 00 00 00    	mov    %dl,0x89(%rbx)
    54b3:	48 89 c2             	mov    %rax,%rdx
    54b6:	48 c1 ea 10          	shr    $0x10,%rdx
    54ba:	88 93 8a 00 00 00    	mov    %dl,0x8a(%rbx)
    54c0:	48 89 c2             	mov    %rax,%rdx
    54c3:	48 c1 ea 18          	shr    $0x18,%rdx
    54c7:	88 93 8b 00 00 00    	mov    %dl,0x8b(%rbx)
    54cd:	48 89 c2             	mov    %rax,%rdx
    54d0:	48 c1 ea 20          	shr    $0x20,%rdx
    54d4:	88 93 8c 00 00 00    	mov    %dl,0x8c(%rbx)
    54da:	48 89 c2             	mov    %rax,%rdx
    54dd:	48 c1 ea 28          	shr    $0x28,%rdx
    54e1:	88 93 8d 00 00 00    	mov    %dl,0x8d(%rbx)
    54e7:	48 89 c2             	mov    %rax,%rdx
    54ea:	48 c1 e8 38          	shr    $0x38,%rax
    54ee:	88 83 8f 00 00 00    	mov    %al,0x8f(%rbx)
    54f4:	48 8b 84 24 a0 00 00 	mov    0xa0(%rsp),%rax
    54fb:	00 
    54fc:	48 c1 ea 30          	shr    $0x30,%rdx
    5500:	88 93 8e 00 00 00    	mov    %dl,0x8e(%rbx)
    5506:	48 89 c2             	mov    %rax,%rdx
    5509:	88 83 90 00 00 00    	mov    %al,0x90(%rbx)
    550f:	48 c1 ea 08          	shr    $0x8,%rdx
    5513:	88 93 91 00 00 00    	mov    %dl,0x91(%rbx)
    5519:	48 89 c2             	mov    %rax,%rdx
    551c:	48 c1 ea 10          	shr    $0x10,%rdx
    5520:	88 93 92 00 00 00    	mov    %dl,0x92(%rbx)
    5526:	48 89 c2             	mov    %rax,%rdx
    5529:	48 c1 ea 18          	shr    $0x18,%rdx
    552d:	88 93 93 00 00 00    	mov    %dl,0x93(%rbx)
    5533:	48 89 c2             	mov    %rax,%rdx
    5536:	48 c1 ea 20          	shr    $0x20,%rdx
    553a:	88 93 94 00 00 00    	mov    %dl,0x94(%rbx)
    5540:	48 89 c2             	mov    %rax,%rdx
    5543:	48 c1 ea 28          	shr    $0x28,%rdx
    5547:	88 93 95 00 00 00    	mov    %dl,0x95(%rbx)
    554d:	48 89 c2             	mov    %rax,%rdx
    5550:	48 c1 e8 38          	shr    $0x38,%rax
    5554:	88 83 97 00 00 00    	mov    %al,0x97(%rbx)
    555a:	48 8b 84 24 a8 00 00 	mov    0xa8(%rsp),%rax
    5561:	00 
    5562:	48 c1 ea 30          	shr    $0x30,%rdx
    5566:	88 93 96 00 00 00    	mov    %dl,0x96(%rbx)
    556c:	48 89 c2             	mov    %rax,%rdx
    556f:	88 83 98 00 00 00    	mov    %al,0x98(%rbx)
    5575:	48 c1 ea 08          	shr    $0x8,%rdx
    5579:	88 93 99 00 00 00    	mov    %dl,0x99(%rbx)
    557f:	48 89 c2             	mov    %rax,%rdx
    5582:	48 c1 ea 10          	shr    $0x10,%rdx
    5586:	88 93 9a 00 00 00    	mov    %dl,0x9a(%rbx)
    558c:	48 89 c2             	mov    %rax,%rdx
    558f:	48 c1 ea 18          	shr    $0x18,%rdx
    5593:	88 93 9b 00 00 00    	mov    %dl,0x9b(%rbx)
    5599:	48 89 c2             	mov    %rax,%rdx
    559c:	48 c1 ea 20          	shr    $0x20,%rdx
    55a0:	88 93 9c 00 00 00    	mov    %dl,0x9c(%rbx)
    55a6:	48 89 c2             	mov    %rax,%rdx
    55a9:	48 c1 ea 28          	shr    $0x28,%rdx
    55ad:	88 93 9d 00 00 00    	mov    %dl,0x9d(%rbx)
    55b3:	48 89 c2             	mov    %rax,%rdx
    55b6:	48 c1 e8 38          	shr    $0x38,%rax
    55ba:	48 c1 ea 30          	shr    $0x30,%rdx
    55be:	88 83 9f 00 00 00    	mov    %al,0x9f(%rbx)
    55c4:	88 93 9e 00 00 00    	mov    %dl,0x9e(%rbx)
    55ca:	48 8b 94 24 b0 00 00 	mov    0xb0(%rsp),%rdx
    55d1:	00 
    55d2:	48 89 d0             	mov    %rdx,%rax
    55d5:	88 93 a0 00 00 00    	mov    %dl,0xa0(%rbx)
    55db:	48 c1 e8 08          	shr    $0x8,%rax
    55df:	88 83 a1 00 00 00    	mov    %al,0xa1(%rbx)
    55e5:	48 89 d0             	mov    %rdx,%rax
    55e8:	48 c1 e8 10          	shr    $0x10,%rax
    55ec:	88 83 a2 00 00 00    	mov    %al,0xa2(%rbx)
    55f2:	48 89 d0             	mov    %rdx,%rax
    55f5:	48 c1 e8 18          	shr    $0x18,%rax
    55f9:	88 83 a3 00 00 00    	mov    %al,0xa3(%rbx)
    55ff:	48 89 d0             	mov    %rdx,%rax
    5602:	48 c1 e8 20          	shr    $0x20,%rax
    5606:	48 81 c3 a8 00 00 00 	add    $0xa8,%rbx
    560d:	88 43 fc             	mov    %al,-0x4(%rbx)
    5610:	48 89 d0             	mov    %rdx,%rax
    5613:	48 c1 e8 28          	shr    $0x28,%rax
    5617:	88 43 fd             	mov    %al,-0x3(%rbx)
    561a:	48 89 d0             	mov    %rdx,%rax
    561d:	48 c1 ea 38          	shr    $0x38,%rdx
    5621:	48 c1 e8 30          	shr    $0x30,%rax
    5625:	88 53 ff             	mov    %dl,-0x1(%rbx)
    5628:	88 43 fe             	mov    %al,-0x2(%rbx)
    562b:	48 39 eb             	cmp    %rbp,%rbx
    562e:	0f 85 6c fa ff ff    	jne    50a0 <shake128+0xa0>
    5634:	48 b9 31 0c c3 30 0c 	movabs $0xc30c30c30c30c31,%rcx
    563b:	c3 30 0c 
    563e:	4c 89 e2             	mov    %r12,%rdx
    5641:	48 c1 ea 03          	shr    $0x3,%rdx
    5645:	48 89 d0             	mov    %rdx,%rax
    5648:	48 f7 e1             	mul    %rcx
    564b:	48 8d 04 92          	lea    (%rdx,%rdx,4),%rax
    564f:	48 8d 04 82          	lea    (%rdx,%rax,4),%rax
    5653:	48 c1 e0 03          	shl    $0x3,%rax
    5657:	49 29 c4             	sub    %rax,%r12
    565a:	75 2c                	jne    5688 <shake128+0x688>
    565c:	48 8b 84 24 88 01 00 	mov    0x188(%rsp),%rax
    5663:	00 
    5664:	64 48 33 04 25 28 00 	xor    %fs:0x28,%rax
    566b:	00 00 
    566d:	0f 85 a7 04 00 00    	jne    5b1a <shake128+0xb1a>
    5673:	48 81 c4 98 01 00 00 	add    $0x198,%rsp
    567a:	5b                   	pop    %rbx
    567b:	5d                   	pop    %rbp
    567c:	41 5c                	pop    %r12
    567e:	41 5d                	pop    %r13
    5680:	41 5e                	pop    %r14
    5682:	41 5f                	pop    %r15
    5684:	c3                   	retq   
    5685:	0f 1f 00             	nopl   (%rax)
    5688:	4c 89 ff             	mov    %r15,%rdi
    568b:	e8 80 bf ff ff       	callq  1610 <KeccakF1600_StatePermute>
    5690:	c5 f9 6f 05 d8 9a 05 	vmovdqa 0x59ad8(%rip),%xmm0        # 5f170 <KeccakF_RoundConstants+0xd0>
    5697:	00 
    5698:	c5 79 6f 54 24 70    	vmovdqa 0x70(%rsp),%xmm10
    569e:	48 8d b4 24 e0 00 00 	lea    0xe0(%rsp),%rsi
    56a5:	00 
    56a6:	c5 79 6f bc 24 80 00 	vmovdqa 0x80(%rsp),%xmm15
    56ad:	00 00 
    56af:	c5 79 6f 64 24 10    	vmovdqa 0x10(%rsp),%xmm12
    56b5:	c5 18 c6 6c 24 20 88 	vshufps $0x88,0x20(%rsp),%xmm12,%xmm13
    56bc:	c5 79 6f 4c 24 30    	vmovdqa 0x30(%rsp),%xmm9
    56c2:	c4 c1 79 db d5       	vpand  %xmm13,%xmm0,%xmm2
    56c7:	c5 b0 c6 64 24 40 88 	vshufps $0x88,0x40(%rsp),%xmm9,%xmm4
    56ce:	c5 f9 db cc          	vpand  %xmm4,%xmm0,%xmm1
    56d2:	c5 f9 6f 74 24 50    	vmovdqa 0x50(%rsp),%xmm6
    56d8:	c4 41 28 c6 df 88    	vshufps $0x88,%xmm15,%xmm10,%xmm11
    56de:	c5 c8 c6 7c 24 60 88 	vshufps $0x88,0x60(%rsp),%xmm6,%xmm7
    56e5:	c4 e2 69 2b d1       	vpackusdw %xmm1,%xmm2,%xmm2
    56ea:	c5 f9 db df          	vpand  %xmm7,%xmm0,%xmm3
    56ee:	c4 c1 79 db cb       	vpand  %xmm11,%xmm0,%xmm1
    56f3:	c4 e2 61 2b c9       	vpackusdw %xmm1,%xmm3,%xmm1
    56f8:	c5 f9 6f 1d 60 9a 05 	vmovdqa 0x59a60(%rip),%xmm3        # 5f160 <KeccakF_RoundConstants+0xc0>
    56ff:	00 
    5700:	c5 e1 db e9          	vpand  %xmm1,%xmm3,%xmm5
    5704:	c5 f1 71 d1 08       	vpsrlw $0x8,%xmm1,%xmm1
    5709:	c5 61 db f2          	vpand  %xmm2,%xmm3,%xmm14
    570d:	c5 e9 71 d2 08       	vpsrlw $0x8,%xmm2,%xmm2
    5712:	c5 e1 db c9          	vpand  %xmm1,%xmm3,%xmm1
    5716:	c5 09 67 f5          	vpackuswb %xmm5,%xmm14,%xmm14
    571a:	c5 e1 db d2          	vpand  %xmm2,%xmm3,%xmm2
    571e:	c5 d1 72 d7 10       	vpsrld $0x10,%xmm7,%xmm5
    5723:	c5 69 67 c1          	vpackuswb %xmm1,%xmm2,%xmm8
    5727:	c4 c1 69 72 d5 10    	vpsrld $0x10,%xmm13,%xmm2
    572d:	c5 f9 db ed          	vpand  %xmm5,%xmm0,%xmm5
    5731:	c5 f1 72 d4 10       	vpsrld $0x10,%xmm4,%xmm1
    5736:	c4 c1 11 72 d5 18    	vpsrld $0x18,%xmm13,%xmm13
    573c:	c5 f9 db d2          	vpand  %xmm2,%xmm0,%xmm2
    5740:	c5 f9 db c9          	vpand  %xmm1,%xmm0,%xmm1
    5744:	c5 d9 72 d4 18       	vpsrld $0x18,%xmm4,%xmm4
    5749:	c4 41 79 db ed       	vpand  %xmm13,%xmm0,%xmm13
    574e:	c4 e2 69 2b c9       	vpackusdw %xmm1,%xmm2,%xmm1
    5753:	c4 c1 69 72 d3 10    	vpsrld $0x10,%xmm11,%xmm2
    5759:	c5 f9 db e4          	vpand  %xmm4,%xmm0,%xmm4
    575d:	c5 f9 db d2          	vpand  %xmm2,%xmm0,%xmm2
    5761:	c5 e1 db c9          	vpand  %xmm1,%xmm3,%xmm1
    5765:	c4 62 11 2b ec       	vpackusdw %xmm4,%xmm13,%xmm13
    576a:	c4 e2 51 2b d2       	vpackusdw %xmm2,%xmm5,%xmm2
    576f:	c4 c1 21 72 d3 18    	vpsrld $0x18,%xmm11,%xmm11
    5775:	c4 c1 61 db e5       	vpand  %xmm13,%xmm3,%xmm4
    577a:	c5 c1 72 d7 18       	vpsrld $0x18,%xmm7,%xmm7
    577f:	c4 c1 51 73 d4 20    	vpsrlq $0x20,%xmm12,%xmm5
    5785:	c5 e1 db d2          	vpand  %xmm2,%xmm3,%xmm2
    5789:	c5 f1 67 ca          	vpackuswb %xmm2,%xmm1,%xmm1
    578d:	c5 f9 db ff          	vpand  %xmm7,%xmm0,%xmm7
    5791:	c4 c1 79 db d3       	vpand  %xmm11,%xmm0,%xmm2
    5796:	c4 c1 21 73 d2 20    	vpsrlq $0x20,%xmm10,%xmm11
    579c:	c4 c1 11 73 d2 28    	vpsrlq $0x28,%xmm10,%xmm13
    57a2:	c4 e2 41 2b d2       	vpackusdw %xmm2,%xmm7,%xmm2
    57a7:	c5 f9 6f 7c 24 20    	vmovdqa 0x20(%rsp),%xmm7
    57ad:	c5 e1 db d2          	vpand  %xmm2,%xmm3,%xmm2
    57b1:	c5 d9 67 e2          	vpackuswb %xmm2,%xmm4,%xmm4
    57b5:	c5 e9 73 d7 20       	vpsrlq $0x20,%xmm7,%xmm2
    57ba:	c5 d0 c6 ea 88       	vshufps $0x88,%xmm2,%xmm5,%xmm5
    57bf:	c5 f9 6f 54 24 40    	vmovdqa 0x40(%rsp),%xmm2
    57c5:	c4 c1 41 73 d1 20    	vpsrlq $0x20,%xmm9,%xmm7
    57cb:	c5 f9 db ed          	vpand  %xmm5,%xmm0,%xmm5
    57cf:	c5 e9 73 d2 20       	vpsrlq $0x20,%xmm2,%xmm2
    57d4:	c5 c0 c6 d2 88       	vshufps $0x88,%xmm2,%xmm7,%xmm2
    57d9:	c5 f9 db d2          	vpand  %xmm2,%xmm0,%xmm2
    57dd:	c5 c1 73 d6 20       	vpsrlq $0x20,%xmm6,%xmm7
    57e2:	c4 e2 51 2b ea       	vpackusdw %xmm2,%xmm5,%xmm5
    57e7:	c5 f9 6f 54 24 60    	vmovdqa 0x60(%rsp),%xmm2
    57ed:	c5 e1 db ed          	vpand  %xmm5,%xmm3,%xmm5
    57f1:	c5 e9 73 d2 20       	vpsrlq $0x20,%xmm2,%xmm2
    57f6:	c5 c0 c6 fa 88       	vshufps $0x88,%xmm2,%xmm7,%xmm7
    57fb:	c4 c1 69 73 d7 20    	vpsrlq $0x20,%xmm15,%xmm2
    5801:	c5 f9 db ff          	vpand  %xmm7,%xmm0,%xmm7
    5805:	c5 a0 c6 d2 88       	vshufps $0x88,%xmm2,%xmm11,%xmm2
    580a:	c5 f9 db d2          	vpand  %xmm2,%xmm0,%xmm2
    580e:	c4 c1 21 73 d1 28    	vpsrlq $0x28,%xmm9,%xmm11
    5814:	c4 e2 41 2b d2       	vpackusdw %xmm2,%xmm7,%xmm2
    5819:	c4 c1 41 73 d4 28    	vpsrlq $0x28,%xmm12,%xmm7
    581f:	c5 e1 db d2          	vpand  %xmm2,%xmm3,%xmm2
    5823:	c5 d1 67 ea          	vpackuswb %xmm2,%xmm5,%xmm5
    5827:	c5 f9 6f 54 24 20    	vmovdqa 0x20(%rsp),%xmm2
    582d:	c5 e9 73 d2 28       	vpsrlq $0x28,%xmm2,%xmm2
    5832:	c5 c0 c6 d2 88       	vshufps $0x88,%xmm2,%xmm7,%xmm2
    5837:	c5 f9 6f 7c 24 40    	vmovdqa 0x40(%rsp),%xmm7
    583d:	c5 f9 db d2          	vpand  %xmm2,%xmm0,%xmm2
    5841:	c5 c1 73 d7 28       	vpsrlq $0x28,%xmm7,%xmm7
    5846:	c5 a0 c6 ff 88       	vshufps $0x88,%xmm7,%xmm11,%xmm7
    584b:	c5 f9 db ff          	vpand  %xmm7,%xmm0,%xmm7
    584f:	c5 a1 73 d6 28       	vpsrlq $0x28,%xmm6,%xmm11
    5854:	c4 e2 69 2b d7       	vpackusdw %xmm7,%xmm2,%xmm2
    5859:	c5 f9 6f 7c 24 60    	vmovdqa 0x60(%rsp),%xmm7
    585f:	c5 e1 db d2          	vpand  %xmm2,%xmm3,%xmm2
    5863:	c5 c1 73 d7 28       	vpsrlq $0x28,%xmm7,%xmm7
    5868:	c5 20 c6 df 88       	vshufps $0x88,%xmm7,%xmm11,%xmm11
    586d:	c4 c1 41 73 d7 28    	vpsrlq $0x28,%xmm15,%xmm7
    5873:	c4 41 79 db db       	vpand  %xmm11,%xmm0,%xmm11
    5878:	c5 90 c6 ff 88       	vshufps $0x88,%xmm7,%xmm13,%xmm7
    587d:	c5 f9 db ff          	vpand  %xmm7,%xmm0,%xmm7
    5881:	c4 c1 11 73 d1 30    	vpsrlq $0x30,%xmm9,%xmm13
    5887:	c4 e2 21 2b ff       	vpackusdw %xmm7,%xmm11,%xmm7
    588c:	c4 c1 21 73 d4 30    	vpsrlq $0x30,%xmm12,%xmm11
    5892:	c4 c1 19 73 d4 38    	vpsrlq $0x38,%xmm12,%xmm12
    5898:	c4 c1 31 73 d1 38    	vpsrlq $0x38,%xmm9,%xmm9
    589e:	c5 e1 db ff          	vpand  %xmm7,%xmm3,%xmm7
    58a2:	c5 e9 67 d7          	vpackuswb %xmm7,%xmm2,%xmm2
    58a6:	c5 f9 6f 7c 24 20    	vmovdqa 0x20(%rsp),%xmm7
    58ac:	c5 c1 73 d7 30       	vpsrlq $0x30,%xmm7,%xmm7
    58b1:	c5 20 c6 df 88       	vshufps $0x88,%xmm7,%xmm11,%xmm11
    58b6:	c5 f9 6f 7c 24 40    	vmovdqa 0x40(%rsp),%xmm7
    58bc:	c4 41 79 db db       	vpand  %xmm11,%xmm0,%xmm11
    58c1:	c5 c1 73 d7 30       	vpsrlq $0x30,%xmm7,%xmm7
    58c6:	c5 90 c6 ff 88       	vshufps $0x88,%xmm7,%xmm13,%xmm7
    58cb:	c5 f9 db ff          	vpand  %xmm7,%xmm0,%xmm7
    58cf:	c5 91 73 d6 30       	vpsrlq $0x30,%xmm6,%xmm13
    58d4:	c4 e2 21 2b ff       	vpackusdw %xmm7,%xmm11,%xmm7
    58d9:	c4 c1 21 73 d2 30    	vpsrlq $0x30,%xmm10,%xmm11
    58df:	c5 f8 29 3c 24       	vmovaps %xmm7,(%rsp)
    58e4:	c5 f9 6f 7c 24 60    	vmovdqa 0x60(%rsp),%xmm7
    58ea:	c5 c9 73 d6 38       	vpsrlq $0x38,%xmm6,%xmm6
    58ef:	c4 c1 29 73 d2 38    	vpsrlq $0x38,%xmm10,%xmm10
    58f5:	c5 c1 73 d7 30       	vpsrlq $0x30,%xmm7,%xmm7
    58fa:	c5 10 c6 ef 88       	vshufps $0x88,%xmm7,%xmm13,%xmm13
    58ff:	c4 c1 41 73 d7 30    	vpsrlq $0x30,%xmm15,%xmm7
    5905:	c4 41 79 db ed       	vpand  %xmm13,%xmm0,%xmm13
    590a:	c5 a0 c6 ff 88       	vshufps $0x88,%xmm7,%xmm11,%xmm7
    590f:	c5 f9 db ff          	vpand  %xmm7,%xmm0,%xmm7
    5913:	c5 61 db 1c 24       	vpand  (%rsp),%xmm3,%xmm11
    5918:	c4 e2 11 2b ff       	vpackusdw %xmm7,%xmm13,%xmm7
    591d:	c5 79 6f 6c 24 20    	vmovdqa 0x20(%rsp),%xmm13
    5923:	c5 e1 db ff          	vpand  %xmm7,%xmm3,%xmm7
    5927:	c5 a1 67 ff          	vpackuswb %xmm7,%xmm11,%xmm7
    592b:	c4 c1 21 73 d5 38    	vpsrlq $0x38,%xmm13,%xmm11
    5931:	c5 79 6f 6c 24 40    	vmovdqa 0x40(%rsp),%xmm13
    5937:	c4 41 18 c6 e3 88    	vshufps $0x88,%xmm11,%xmm12,%xmm12
    593d:	c4 41 79 db e4       	vpand  %xmm12,%xmm0,%xmm12
    5942:	c4 c1 21 73 d5 38    	vpsrlq $0x38,%xmm13,%xmm11
    5948:	c4 41 30 c6 cb 88    	vshufps $0x88,%xmm11,%xmm9,%xmm9
    594e:	c4 41 79 db c9       	vpand  %xmm9,%xmm0,%xmm9
    5953:	c4 42 19 2b c9       	vpackusdw %xmm9,%xmm12,%xmm9
    5958:	c5 79 6f 64 24 60    	vmovdqa 0x60(%rsp),%xmm12
    595e:	c4 41 61 db c9       	vpand  %xmm9,%xmm3,%xmm9
    5963:	c4 c1 21 73 d4 38    	vpsrlq $0x38,%xmm12,%xmm11
    5969:	c4 c1 48 c6 f3 88    	vshufps $0x88,%xmm11,%xmm6,%xmm6
    596f:	c4 c1 21 73 d7 38    	vpsrlq $0x38,%xmm15,%xmm11
    5975:	c5 f9 db f6          	vpand  %xmm6,%xmm0,%xmm6
    5979:	c4 41 28 c6 d3 88    	vshufps $0x88,%xmm11,%xmm10,%xmm10
    597f:	c4 c1 79 db c2       	vpand  %xmm10,%xmm0,%xmm0
    5984:	c4 e2 49 2b c0       	vpackusdw %xmm0,%xmm6,%xmm0
    5989:	c5 89 60 f5          	vpunpcklbw %xmm5,%xmm14,%xmm6
    598d:	c5 89 68 ed          	vpunpckhbw %xmm5,%xmm14,%xmm5
    5991:	c5 e1 db d8          	vpand  %xmm0,%xmm3,%xmm3
    5995:	c5 f1 60 c7          	vpunpcklbw %xmm7,%xmm1,%xmm0
    5999:	c5 f1 68 ff          	vpunpckhbw %xmm7,%xmm1,%xmm7
    599d:	c5 b1 67 db          	vpackuswb %xmm3,%xmm9,%xmm3
    59a1:	c5 39 60 ca          	vpunpcklbw %xmm2,%xmm8,%xmm9
    59a5:	c5 b9 68 d2          	vpunpckhbw %xmm2,%xmm8,%xmm2
    59a9:	c5 d9 60 cb          	vpunpcklbw %xmm3,%xmm4,%xmm1
    59ad:	c5 49 60 c0          	vpunpcklbw %xmm0,%xmm6,%xmm8
    59b1:	c5 d9 68 db          	vpunpckhbw %xmm3,%xmm4,%xmm3
    59b5:	c5 c9 68 c0          	vpunpckhbw %xmm0,%xmm6,%xmm0
    59b9:	c5 b1 60 f1          	vpunpcklbw %xmm1,%xmm9,%xmm6
    59bd:	c5 d1 60 e7          	vpunpcklbw %xmm7,%xmm5,%xmm4
    59c1:	c5 d1 68 ff          	vpunpckhbw %xmm7,%xmm5,%xmm7
    59c5:	c5 e9 60 eb          	vpunpcklbw %xmm3,%xmm2,%xmm5
    59c9:	c5 e9 68 d3          	vpunpckhbw %xmm3,%xmm2,%xmm2
    59cd:	c5 b9 60 de          	vpunpcklbw %xmm6,%xmm8,%xmm3
    59d1:	c5 b1 68 c9          	vpunpckhbw %xmm1,%xmm9,%xmm1
    59d5:	c5 f8 29 9c 24 e0 00 	vmovaps %xmm3,0xe0(%rsp)
    59dc:	00 00 
    59de:	c5 b9 68 de          	vpunpckhbw %xmm6,%xmm8,%xmm3
    59e2:	c5 f8 29 9c 24 f0 00 	vmovaps %xmm3,0xf0(%rsp)
    59e9:	00 00 
    59eb:	c5 f9 60 d9          	vpunpcklbw %xmm1,%xmm0,%xmm3
    59ef:	c5 f9 68 c9          	vpunpckhbw %xmm1,%xmm0,%xmm1
    59f3:	c5 d9 60 c5          	vpunpcklbw %xmm5,%xmm4,%xmm0
    59f7:	c5 f8 29 84 24 20 01 	vmovaps %xmm0,0x120(%rsp)
    59fe:	00 00 
    5a00:	c5 d9 68 c5          	vpunpckhbw %xmm5,%xmm4,%xmm0
    5a04:	c5 f8 29 84 24 30 01 	vmovaps %xmm0,0x130(%rsp)
    5a0b:	00 00 
    5a0d:	c5 c1 60 c2          	vpunpcklbw %xmm2,%xmm7,%xmm0
    5a11:	c5 c1 68 fa          	vpunpckhbw %xmm2,%xmm7,%xmm7
    5a15:	c5 f8 29 9c 24 00 01 	vmovaps %xmm3,0x100(%rsp)
    5a1c:	00 00 
    5a1e:	c5 f8 29 8c 24 10 01 	vmovaps %xmm1,0x110(%rsp)
    5a25:	00 00 
    5a27:	c5 f8 29 84 24 40 01 	vmovaps %xmm0,0x140(%rsp)
    5a2e:	00 00 
    5a30:	c5 f8 29 bc 24 50 01 	vmovaps %xmm7,0x150(%rsp)
    5a37:	00 00 
    5a39:	48 8b 84 24 90 00 00 	mov    0x90(%rsp),%rax
    5a40:	00 
    5a41:	48 89 84 24 60 01 00 	mov    %rax,0x160(%rsp)
    5a48:	00 
    5a49:	48 8b 84 24 98 00 00 	mov    0x98(%rsp),%rax
    5a50:	00 
    5a51:	48 89 84 24 68 01 00 	mov    %rax,0x168(%rsp)
    5a58:	00 
    5a59:	48 8b 84 24 a0 00 00 	mov    0xa0(%rsp),%rax
    5a60:	00 
    5a61:	48 89 84 24 70 01 00 	mov    %rax,0x170(%rsp)
    5a68:	00 
    5a69:	48 8b 84 24 a8 00 00 	mov    0xa8(%rsp),%rax
    5a70:	00 
    5a71:	48 89 84 24 78 01 00 	mov    %rax,0x178(%rsp)
    5a78:	00 
    5a79:	48 8b 84 24 b0 00 00 	mov    0xb0(%rsp),%rax
    5a80:	00 
    5a81:	48 89 84 24 80 01 00 	mov    %rax,0x180(%rsp)
    5a88:	00 
    5a89:	4b 8d 44 ad 00       	lea    0x0(%r13,%r13,4),%rax
    5a8e:	49 8d 44 85 00       	lea    0x0(%r13,%rax,4),%rax
    5a93:	49 8d 0c c6          	lea    (%r14,%rax,8),%rcx
    5a97:	41 83 fc 08          	cmp    $0x8,%r12d
    5a9b:	73 33                	jae    5ad0 <shake128+0xad0>
    5a9d:	41 f6 c4 04          	test   $0x4,%r12b
    5aa1:	75 61                	jne    5b04 <shake128+0xb04>
    5aa3:	45 85 e4             	test   %r12d,%r12d
    5aa6:	0f 84 b0 fb ff ff    	je     565c <shake128+0x65c>
    5aac:	0f b6 06             	movzbl (%rsi),%eax
    5aaf:	88 01                	mov    %al,(%rcx)
    5ab1:	41 f6 c4 02          	test   $0x2,%r12b
    5ab5:	0f 84 a1 fb ff ff    	je     565c <shake128+0x65c>
    5abb:	45 89 e4             	mov    %r12d,%r12d
    5abe:	42 0f b7 44 26 fe    	movzwl -0x2(%rsi,%r12,1),%eax
    5ac4:	66 42 89 44 21 fe    	mov    %ax,-0x2(%rcx,%r12,1)
    5aca:	e9 8d fb ff ff       	jmpq   565c <shake128+0x65c>
    5acf:	90                   	nop
    5ad0:	48 8b 84 24 e0 00 00 	mov    0xe0(%rsp),%rax
    5ad7:	00 
    5ad8:	48 8d 79 08          	lea    0x8(%rcx),%rdi
    5adc:	48 83 e7 f8          	and    $0xfffffffffffffff8,%rdi
    5ae0:	48 89 01             	mov    %rax,(%rcx)
    5ae3:	44 89 e0             	mov    %r12d,%eax
    5ae6:	48 8b 54 06 f8       	mov    -0x8(%rsi,%rax,1),%rdx
    5aeb:	48 89 54 01 f8       	mov    %rdx,-0x8(%rcx,%rax,1)
    5af0:	48 29 f9             	sub    %rdi,%rcx
    5af3:	48 29 ce             	sub    %rcx,%rsi
    5af6:	44 01 e1             	add    %r12d,%ecx
    5af9:	c1 e9 03             	shr    $0x3,%ecx
    5afc:	f3 48 a5             	rep movsq %ds:(%rsi),%es:(%rdi)
    5aff:	e9 58 fb ff ff       	jmpq   565c <shake128+0x65c>
    5b04:	8b 06                	mov    (%rsi),%eax
    5b06:	45 89 e4             	mov    %r12d,%r12d
    5b09:	89 01                	mov    %eax,(%rcx)
    5b0b:	42 8b 44 26 fc       	mov    -0x4(%rsi,%r12,1),%eax
    5b10:	42 89 44 21 fc       	mov    %eax,-0x4(%rcx,%r12,1)
    5b15:	e9 42 fb ff ff       	jmpq   565c <shake128+0x65c>
    5b1a:	e8 b1 b5 ff ff       	callq  10d0 <__stack_chk_fail@plt>
    5b1f:	90                   	nop

0000000000005b20 <cshake128_simple_absorb>:
    5b20:	f3 0f 1e fa          	endbr64 
    5b24:	41 55                	push   %r13
    5b26:	49 89 cd             	mov    %rcx,%r13
    5b29:	31 c0                	xor    %eax,%eax
    5b2b:	41 54                	push   %r12
    5b2d:	49 89 d4             	mov    %rdx,%r12
    5b30:	55                   	push   %rbp
    5b31:	48 89 fd             	mov    %rdi,%rbp
    5b34:	48 8d 7f 08          	lea    0x8(%rdi),%rdi
    5b38:	48 c7 87 b8 00 00 00 	movq   $0x0,0xb8(%rdi)
    5b3f:	00 00 00 00 
    5b43:	48 89 e9             	mov    %rbp,%rcx
    5b46:	48 83 e7 f8          	and    $0xfffffffffffffff8,%rdi
    5b4a:	48 29 f9             	sub    %rdi,%rcx
    5b4d:	81 c1 c8 00 00 00    	add    $0xc8,%ecx
    5b53:	c1 e9 03             	shr    $0x3,%ecx
    5b56:	f3 48 ab             	rep stos %rax,%es:(%rdi)
    5b59:	b8 01 10 00 00       	mov    $0x1001,%eax
    5b5e:	66 89 75 06          	mov    %si,0x6(%rbp)
    5b62:	48 89 ef             	mov    %rbp,%rdi
    5b65:	c7 45 00 01 a8 01 00 	movl   $0x1a801,0x0(%rbp)
    5b6c:	66 89 45 04          	mov    %ax,0x4(%rbp)
    5b70:	e8 9b ba ff ff       	callq  1610 <KeccakF1600_StatePermute>
    5b75:	4c 89 ea             	mov    %r13,%rdx
    5b78:	4c 89 e6             	mov    %r12,%rsi
    5b7b:	48 89 ef             	mov    %rbp,%rdi
    5b7e:	b9 04 00 00 00       	mov    $0x4,%ecx
    5b83:	5d                   	pop    %rbp
    5b84:	41 5c                	pop    %r12
    5b86:	41 5d                	pop    %r13
    5b88:	e9 f3 c3 ff ff       	jmpq   1f80 <keccak_absorb.constprop.0>
    5b8d:	0f 1f 00             	nopl   (%rax)

0000000000005b90 <cshake128_simple_squeezeblocks>:
    5b90:	f3 0f 1e fa          	endbr64 
    5b94:	48 85 f6             	test   %rsi,%rsi
    5b97:	0f 84 33 06 00 00    	je     61d0 <cshake128_simple_squeezeblocks+0x640>
    5b9d:	41 55                	push   %r13
    5b9f:	49 89 f5             	mov    %rsi,%r13
    5ba2:	41 54                	push   %r12
    5ba4:	4c 8d 62 7f          	lea    0x7f(%rdx),%r12
    5ba8:	55                   	push   %rbp
    5ba9:	48 89 d5             	mov    %rdx,%rbp
    5bac:	53                   	push   %rbx
    5bad:	48 89 fb             	mov    %rdi,%rbx
    5bb0:	48 83 ec 08          	sub    $0x8,%rsp
    5bb4:	c5 79 6f 05 b4 95 05 	vmovdqa 0x595b4(%rip),%xmm8        # 5f170 <KeccakF_RoundConstants+0xd0>
    5bbb:	00 
    5bbc:	c5 79 6f 0d 9c 95 05 	vmovdqa 0x5959c(%rip),%xmm9        # 5f160 <KeccakF_RoundConstants+0xc0>
    5bc3:	00 
    5bc4:	e9 6b 05 00 00       	jmpq   6134 <cshake128_simple_squeezeblocks+0x5a4>
    5bc9:	0f 1f 80 00 00 00 00 	nopl   0x0(%rax)
    5bd0:	c5 7a 6f 65 00       	vmovdqu 0x0(%rbp),%xmm12
    5bd5:	c5 7a 6f 55 20       	vmovdqu 0x20(%rbp),%xmm10
    5bda:	c5 18 c6 7d 10 88    	vshufps $0x88,0x10(%rbp),%xmm12,%xmm15
    5be0:	c5 28 c6 5d 30 88    	vshufps $0x88,0x30(%rbp),%xmm10,%xmm11
    5be6:	c4 c1 39 db cf       	vpand  %xmm15,%xmm8,%xmm1
    5beb:	c4 c1 39 db c3       	vpand  %xmm11,%xmm8,%xmm0
    5bf0:	c5 fa 6f 5d 40       	vmovdqu 0x40(%rbp),%xmm3
    5bf5:	c5 fa 6f 7d 60       	vmovdqu 0x60(%rbp),%xmm7
    5bfa:	c5 e0 c6 6d 50 88    	vshufps $0x88,0x50(%rbp),%xmm3,%xmm5
    5c00:	c5 40 c6 6d 70 88    	vshufps $0x88,0x70(%rbp),%xmm7,%xmm13
    5c06:	c4 e2 71 2b c8       	vpackusdw %xmm0,%xmm1,%xmm1
    5c0b:	c5 b9 db e5          	vpand  %xmm5,%xmm8,%xmm4
    5c0f:	c4 c1 39 db c5       	vpand  %xmm13,%xmm8,%xmm0
    5c14:	c4 c1 69 72 d7 10    	vpsrld $0x10,%xmm15,%xmm2
    5c1a:	c5 31 db f1          	vpand  %xmm1,%xmm9,%xmm14
    5c1e:	c5 f1 71 d1 08       	vpsrlw $0x8,%xmm1,%xmm1
    5c23:	c4 c1 01 72 d7 18    	vpsrld $0x18,%xmm15,%xmm15
    5c29:	c4 e2 59 2b e0       	vpackusdw %xmm0,%xmm4,%xmm4
    5c2e:	c5 b1 db c4          	vpand  %xmm4,%xmm9,%xmm0
    5c32:	c5 d9 71 d4 08       	vpsrlw $0x8,%xmm4,%xmm4
    5c37:	c5 b1 db c9          	vpand  %xmm1,%xmm9,%xmm1
    5c3b:	c5 09 67 f0          	vpackuswb %xmm0,%xmm14,%xmm14
    5c3f:	c5 b1 db e4          	vpand  %xmm4,%xmm9,%xmm4
    5c43:	c4 41 39 db ff       	vpand  %xmm15,%xmm8,%xmm15
    5c48:	c4 c1 79 72 d3 10    	vpsrld $0x10,%xmm11,%xmm0
    5c4e:	c4 c1 21 72 d3 18    	vpsrld $0x18,%xmm11,%xmm11
    5c54:	c5 f1 67 f4          	vpackuswb %xmm4,%xmm1,%xmm6
    5c58:	c5 b9 db c0          	vpand  %xmm0,%xmm8,%xmm0
    5c5c:	c5 b9 db ca          	vpand  %xmm2,%xmm8,%xmm1
    5c60:	c4 41 39 db db       	vpand  %xmm11,%xmm8,%xmm11
    5c65:	c4 e2 71 2b d0       	vpackusdw %xmm0,%xmm1,%xmm2
    5c6a:	c5 f9 72 d5 10       	vpsrld $0x10,%xmm5,%xmm0
    5c6f:	c4 42 01 2b fb       	vpackusdw %xmm11,%xmm15,%xmm15
    5c74:	c4 c1 71 72 d5 10    	vpsrld $0x10,%xmm13,%xmm1
    5c7a:	c5 b9 db c0          	vpand  %xmm0,%xmm8,%xmm0
    5c7e:	c5 b1 db d2          	vpand  %xmm2,%xmm9,%xmm2
    5c82:	c5 b9 db c9          	vpand  %xmm1,%xmm8,%xmm1
    5c86:	c5 d1 72 d5 18       	vpsrld $0x18,%xmm5,%xmm5
    5c8b:	c4 41 31 db ff       	vpand  %xmm15,%xmm9,%xmm15
    5c90:	c4 e2 79 2b c9       	vpackusdw %xmm1,%xmm0,%xmm1
    5c95:	c4 c1 11 72 d5 18    	vpsrld $0x18,%xmm13,%xmm13
    5c9b:	c5 b9 db ed          	vpand  %xmm5,%xmm8,%xmm5
    5c9f:	c5 b1 db c1          	vpand  %xmm1,%xmm9,%xmm0
    5ca3:	c5 fa 6f 4d 10       	vmovdqu 0x10(%rbp),%xmm1
    5ca8:	c4 41 39 db ed       	vpand  %xmm13,%xmm8,%xmm13
    5cad:	c5 e9 67 c0          	vpackuswb %xmm0,%xmm2,%xmm0
    5cb1:	c4 c1 69 73 d4 20    	vpsrlq $0x20,%xmm12,%xmm2
    5cb7:	c4 c2 51 2b ed       	vpackusdw %xmm13,%xmm5,%xmm5
    5cbc:	c5 f1 73 d1 20       	vpsrlq $0x20,%xmm1,%xmm1
    5cc1:	c5 a1 73 d7 20       	vpsrlq $0x20,%xmm7,%xmm11
    5cc6:	c5 b1 db ed          	vpand  %xmm5,%xmm9,%xmm5
    5cca:	c5 e8 c6 d1 88       	vshufps $0x88,%xmm1,%xmm2,%xmm2
    5ccf:	c5 fa 6f 4d 30       	vmovdqu 0x30(%rbp),%xmm1
    5cd4:	c5 81 67 e5          	vpackuswb %xmm5,%xmm15,%xmm4
    5cd8:	c4 c1 51 73 d2 20    	vpsrlq $0x20,%xmm10,%xmm5
    5cde:	c5 91 73 d7 28       	vpsrlq $0x28,%xmm7,%xmm13
    5ce3:	c5 81 73 d7 30       	vpsrlq $0x30,%xmm7,%xmm15
    5ce8:	c5 b9 db d2          	vpand  %xmm2,%xmm8,%xmm2
    5cec:	c5 f1 73 d1 20       	vpsrlq $0x20,%xmm1,%xmm1
    5cf1:	c5 c1 73 d7 38       	vpsrlq $0x38,%xmm7,%xmm7
    5cf6:	c5 d0 c6 c9 88       	vshufps $0x88,%xmm1,%xmm5,%xmm1
    5cfb:	c5 b9 db e9          	vpand  %xmm1,%xmm8,%xmm5
    5cff:	c5 fa 6f 4d 50       	vmovdqu 0x50(%rbp),%xmm1
    5d04:	c4 e2 69 2b ed       	vpackusdw %xmm5,%xmm2,%xmm5
    5d09:	c5 e9 73 d3 20       	vpsrlq $0x20,%xmm3,%xmm2
    5d0e:	c5 f1 73 d1 20       	vpsrlq $0x20,%xmm1,%xmm1
    5d13:	c5 b1 db ed          	vpand  %xmm5,%xmm9,%xmm5
    5d17:	c5 e8 c6 d1 88       	vshufps $0x88,%xmm1,%xmm2,%xmm2
    5d1c:	c5 fa 6f 4d 70       	vmovdqu 0x70(%rbp),%xmm1
    5d21:	c5 b9 db d2          	vpand  %xmm2,%xmm8,%xmm2
    5d25:	c5 f1 73 d1 20       	vpsrlq $0x20,%xmm1,%xmm1
    5d2a:	c5 a0 c6 c9 88       	vshufps $0x88,%xmm1,%xmm11,%xmm1
    5d2f:	c5 b9 db c9          	vpand  %xmm1,%xmm8,%xmm1
    5d33:	c4 c1 21 73 d4 28    	vpsrlq $0x28,%xmm12,%xmm11
    5d39:	c4 e2 69 2b c9       	vpackusdw %xmm1,%xmm2,%xmm1
    5d3e:	c5 b1 db d1          	vpand  %xmm1,%xmm9,%xmm2
    5d42:	c5 d1 67 d2          	vpackuswb %xmm2,%xmm5,%xmm2
    5d46:	c5 fa 6f 6d 10       	vmovdqu 0x10(%rbp),%xmm5
    5d4b:	c5 f1 73 d5 28       	vpsrlq $0x28,%xmm5,%xmm1
    5d50:	c5 fa 6f 6d 30       	vmovdqu 0x30(%rbp),%xmm5
    5d55:	c5 a0 c6 c9 88       	vshufps $0x88,%xmm1,%xmm11,%xmm1
    5d5a:	c4 c1 21 73 d2 28    	vpsrlq $0x28,%xmm10,%xmm11
    5d60:	c5 b9 db c9          	vpand  %xmm1,%xmm8,%xmm1
    5d64:	c5 d1 73 d5 28       	vpsrlq $0x28,%xmm5,%xmm5
    5d69:	c5 a0 c6 ed 88       	vshufps $0x88,%xmm5,%xmm11,%xmm5
    5d6e:	c5 39 db dd          	vpand  %xmm5,%xmm8,%xmm11
    5d72:	c5 d1 73 d3 28       	vpsrlq $0x28,%xmm3,%xmm5
    5d77:	c4 42 71 2b db       	vpackusdw %xmm11,%xmm1,%xmm11
    5d7c:	c5 fa 6f 4d 50       	vmovdqu 0x50(%rbp),%xmm1
    5d81:	c4 41 31 db db       	vpand  %xmm11,%xmm9,%xmm11
    5d86:	c5 f1 73 d1 28       	vpsrlq $0x28,%xmm1,%xmm1
    5d8b:	c5 d0 c6 c9 88       	vshufps $0x88,%xmm1,%xmm5,%xmm1
    5d90:	c5 fa 6f 6d 70       	vmovdqu 0x70(%rbp),%xmm5
    5d95:	c5 b9 db c9          	vpand  %xmm1,%xmm8,%xmm1
    5d99:	c5 d1 73 d5 28       	vpsrlq $0x28,%xmm5,%xmm5
    5d9e:	c5 90 c6 ed 88       	vshufps $0x88,%xmm5,%xmm13,%xmm5
    5da3:	c5 b9 db ed          	vpand  %xmm5,%xmm8,%xmm5
    5da7:	c4 c1 11 73 d4 30    	vpsrlq $0x30,%xmm12,%xmm13
    5dad:	c4 e2 71 2b ed       	vpackusdw %xmm5,%xmm1,%xmm5
    5db2:	c4 c1 19 73 d4 38    	vpsrlq $0x38,%xmm12,%xmm12
    5db8:	c5 b1 db cd          	vpand  %xmm5,%xmm9,%xmm1
    5dbc:	c5 fa 6f 6d 10       	vmovdqu 0x10(%rbp),%xmm5
    5dc1:	c5 a1 67 c9          	vpackuswb %xmm1,%xmm11,%xmm1
    5dc5:	c4 c1 21 73 d2 30    	vpsrlq $0x30,%xmm10,%xmm11
    5dcb:	c5 d1 73 d5 30       	vpsrlq $0x30,%xmm5,%xmm5
    5dd0:	c4 c1 29 73 d2 38    	vpsrlq $0x38,%xmm10,%xmm10
    5dd6:	c5 10 c6 ed 88       	vshufps $0x88,%xmm5,%xmm13,%xmm13
    5ddb:	c5 fa 6f 6d 30       	vmovdqu 0x30(%rbp),%xmm5
    5de0:	c4 41 39 db ed       	vpand  %xmm13,%xmm8,%xmm13
    5de5:	c5 d1 73 d5 30       	vpsrlq $0x30,%xmm5,%xmm5
    5dea:	c5 a0 c6 ed 88       	vshufps $0x88,%xmm5,%xmm11,%xmm5
    5def:	c5 39 db dd          	vpand  %xmm5,%xmm8,%xmm11
    5df3:	c5 fa 6f 6d 50       	vmovdqu 0x50(%rbp),%xmm5
    5df8:	c4 42 11 2b db       	vpackusdw %xmm11,%xmm13,%xmm11
    5dfd:	c5 91 73 d3 30       	vpsrlq $0x30,%xmm3,%xmm13
    5e02:	c5 d1 73 d5 30       	vpsrlq $0x30,%xmm5,%xmm5
    5e07:	c5 e1 73 d3 38       	vpsrlq $0x38,%xmm3,%xmm3
    5e0c:	c4 41 31 db db       	vpand  %xmm11,%xmm9,%xmm11
    5e11:	c5 10 c6 ed 88       	vshufps $0x88,%xmm5,%xmm13,%xmm13
    5e16:	c5 fa 6f 6d 70       	vmovdqu 0x70(%rbp),%xmm5
    5e1b:	c4 41 39 db ed       	vpand  %xmm13,%xmm8,%xmm13
    5e20:	c5 d1 73 d5 30       	vpsrlq $0x30,%xmm5,%xmm5
    5e25:	c5 80 c6 ed 88       	vshufps $0x88,%xmm5,%xmm15,%xmm5
    5e2a:	c5 b9 db ed          	vpand  %xmm5,%xmm8,%xmm5
    5e2e:	c5 7a 6f 7d 10       	vmovdqu 0x10(%rbp),%xmm15
    5e33:	c4 e2 11 2b ed       	vpackusdw %xmm5,%xmm13,%xmm5
    5e38:	c5 49 60 e9          	vpunpcklbw %xmm1,%xmm6,%xmm13
    5e3c:	c5 c9 68 c9          	vpunpckhbw %xmm1,%xmm6,%xmm1
    5e40:	c5 b1 db ed          	vpand  %xmm5,%xmm9,%xmm5
    5e44:	c5 a1 67 ed          	vpackuswb %xmm5,%xmm11,%xmm5
    5e48:	c4 c1 21 73 d7 38    	vpsrlq $0x38,%xmm15,%xmm11
    5e4e:	c5 7a 6f 7d 30       	vmovdqu 0x30(%rbp),%xmm15
    5e53:	c4 41 18 c6 e3 88    	vshufps $0x88,%xmm11,%xmm12,%xmm12
    5e59:	c4 41 39 db e4       	vpand  %xmm12,%xmm8,%xmm12
    5e5e:	c4 c1 21 73 d7 38    	vpsrlq $0x38,%xmm15,%xmm11
    5e64:	c5 7a 6f 7d 50       	vmovdqu 0x50(%rbp),%xmm15
    5e69:	c4 41 28 c6 d3 88    	vshufps $0x88,%xmm11,%xmm10,%xmm10
    5e6f:	c4 41 39 db d2       	vpand  %xmm10,%xmm8,%xmm10
    5e74:	c4 42 19 2b e2       	vpackusdw %xmm10,%xmm12,%xmm12
    5e79:	c4 c1 29 73 d7 38    	vpsrlq $0x38,%xmm15,%xmm10
    5e7f:	c4 c1 60 c6 da 88    	vshufps $0x88,%xmm10,%xmm3,%xmm3
    5e85:	c5 7a 6f 55 70       	vmovdqu 0x70(%rbp),%xmm10
    5e8a:	c5 b9 db db          	vpand  %xmm3,%xmm8,%xmm3
    5e8e:	c4 41 31 db e4       	vpand  %xmm12,%xmm9,%xmm12
    5e93:	c4 c1 29 73 d2 38    	vpsrlq $0x38,%xmm10,%xmm10
    5e99:	c4 c1 40 c6 fa 88    	vshufps $0x88,%xmm10,%xmm7,%xmm7
    5e9f:	c5 b9 db ff          	vpand  %xmm7,%xmm8,%xmm7
    5ea3:	c5 79 60 d5          	vpunpcklbw %xmm5,%xmm0,%xmm10
    5ea7:	c5 f9 68 ed          	vpunpckhbw %xmm5,%xmm0,%xmm5
    5eab:	c4 e2 61 2b df       	vpackusdw %xmm7,%xmm3,%xmm3
    5eb0:	c5 b1 db db          	vpand  %xmm3,%xmm9,%xmm3
    5eb4:	c5 19 67 e3          	vpackuswb %xmm3,%xmm12,%xmm12
    5eb8:	c5 89 60 da          	vpunpcklbw %xmm2,%xmm14,%xmm3
    5ebc:	c5 89 68 d2          	vpunpckhbw %xmm2,%xmm14,%xmm2
    5ec0:	c4 c1 59 60 fc       	vpunpcklbw %xmm12,%xmm4,%xmm7
    5ec5:	c4 41 61 60 fa       	vpunpcklbw %xmm10,%xmm3,%xmm15
    5eca:	c4 c1 59 68 e4       	vpunpckhbw %xmm12,%xmm4,%xmm4
    5ecf:	c4 41 61 68 d2       	vpunpckhbw %xmm10,%xmm3,%xmm10
    5ed4:	c5 e9 60 dd          	vpunpcklbw %xmm5,%xmm2,%xmm3
    5ed8:	c5 e9 68 ed          	vpunpckhbw %xmm5,%xmm2,%xmm5
    5edc:	c5 91 60 d7          	vpunpcklbw %xmm7,%xmm13,%xmm2
    5ee0:	c5 91 68 ff          	vpunpckhbw %xmm7,%xmm13,%xmm7
    5ee4:	c5 f1 60 c4          	vpunpcklbw %xmm4,%xmm1,%xmm0
    5ee8:	c5 f1 68 cc          	vpunpckhbw %xmm4,%xmm1,%xmm1
    5eec:	c5 81 60 e2          	vpunpcklbw %xmm2,%xmm15,%xmm4
    5ef0:	c5 01 68 fa          	vpunpckhbw %xmm2,%xmm15,%xmm15
    5ef4:	c5 a9 60 d7          	vpunpcklbw %xmm7,%xmm10,%xmm2
    5ef8:	c5 29 68 d7          	vpunpckhbw %xmm7,%xmm10,%xmm10
    5efc:	c5 e1 68 f8          	vpunpckhbw %xmm0,%xmm3,%xmm7
    5f00:	c5 f8 11 23          	vmovups %xmm4,(%rbx)
    5f04:	c5 f8 11 53 20       	vmovups %xmm2,0x20(%rbx)
    5f09:	c5 e1 60 d0          	vpunpcklbw %xmm0,%xmm3,%xmm2
    5f0d:	c5 d1 60 c1          	vpunpcklbw %xmm1,%xmm5,%xmm0
    5f11:	c5 d1 68 e9          	vpunpckhbw %xmm1,%xmm5,%xmm5
    5f15:	c5 78 11 7b 10       	vmovups %xmm15,0x10(%rbx)
    5f1a:	c5 78 11 53 30       	vmovups %xmm10,0x30(%rbx)
    5f1f:	c5 f8 11 53 40       	vmovups %xmm2,0x40(%rbx)
    5f24:	c5 f8 11 7b 50       	vmovups %xmm7,0x50(%rbx)
    5f29:	c5 f8 11 43 60       	vmovups %xmm0,0x60(%rbx)
    5f2e:	c5 f8 11 6b 70       	vmovups %xmm5,0x70(%rbx)
    5f33:	48 8b 85 80 00 00 00 	mov    0x80(%rbp),%rax
    5f3a:	48 89 c2             	mov    %rax,%rdx
    5f3d:	88 83 80 00 00 00    	mov    %al,0x80(%rbx)
    5f43:	48 c1 ea 08          	shr    $0x8,%rdx
    5f47:	88 93 81 00 00 00    	mov    %dl,0x81(%rbx)
    5f4d:	48 89 c2             	mov    %rax,%rdx
    5f50:	48 c1 ea 10          	shr    $0x10,%rdx
    5f54:	88 93 82 00 00 00    	mov    %dl,0x82(%rbx)
    5f5a:	48 89 c2             	mov    %rax,%rdx
    5f5d:	48 c1 ea 18          	shr    $0x18,%rdx
    5f61:	88 93 83 00 00 00    	mov    %dl,0x83(%rbx)
    5f67:	48 89 c2             	mov    %rax,%rdx
    5f6a:	48 c1 ea 20          	shr    $0x20,%rdx
    5f6e:	88 93 84 00 00 00    	mov    %dl,0x84(%rbx)
    5f74:	48 89 c2             	mov    %rax,%rdx
    5f77:	48 c1 ea 28          	shr    $0x28,%rdx
    5f7b:	88 93 85 00 00 00    	mov    %dl,0x85(%rbx)
    5f81:	48 89 c2             	mov    %rax,%rdx
    5f84:	48 c1 e8 38          	shr    $0x38,%rax
    5f88:	48 c1 ea 30          	shr    $0x30,%rdx
    5f8c:	88 83 87 00 00 00    	mov    %al,0x87(%rbx)
    5f92:	88 93 86 00 00 00    	mov    %dl,0x86(%rbx)
    5f98:	48 8b 85 88 00 00 00 	mov    0x88(%rbp),%rax
    5f9f:	48 89 c2             	mov    %rax,%rdx
    5fa2:	88 83 88 00 00 00    	mov    %al,0x88(%rbx)
    5fa8:	48 c1 ea 08          	shr    $0x8,%rdx
    5fac:	88 93 89 00 00 00    	mov    %dl,0x89(%rbx)
    5fb2:	48 89 c2             	mov    %rax,%rdx
    5fb5:	48 c1 ea 10          	shr    $0x10,%rdx
    5fb9:	88 93 8a 00 00 00    	mov    %dl,0x8a(%rbx)
    5fbf:	48 89 c2             	mov    %rax,%rdx
    5fc2:	48 c1 ea 18          	shr    $0x18,%rdx
    5fc6:	88 93 8b 00 00 00    	mov    %dl,0x8b(%rbx)
    5fcc:	48 89 c2             	mov    %rax,%rdx
    5fcf:	48 c1 ea 20          	shr    $0x20,%rdx
    5fd3:	88 93 8c 00 00 00    	mov    %dl,0x8c(%rbx)
    5fd9:	48 89 c2             	mov    %rax,%rdx
    5fdc:	48 c1 ea 28          	shr    $0x28,%rdx
    5fe0:	88 93 8d 00 00 00    	mov    %dl,0x8d(%rbx)
    5fe6:	48 89 c2             	mov    %rax,%rdx
    5fe9:	48 c1 e8 38          	shr    $0x38,%rax
    5fed:	48 c1 ea 30          	shr    $0x30,%rdx
    5ff1:	88 83 8f 00 00 00    	mov    %al,0x8f(%rbx)
    5ff7:	88 93 8e 00 00 00    	mov    %dl,0x8e(%rbx)
    5ffd:	48 8b 85 90 00 00 00 	mov    0x90(%rbp),%rax
    6004:	48 89 c2             	mov    %rax,%rdx
    6007:	88 83 90 00 00 00    	mov    %al,0x90(%rbx)
    600d:	48 c1 ea 08          	shr    $0x8,%rdx
    6011:	88 93 91 00 00 00    	mov    %dl,0x91(%rbx)
    6017:	48 89 c2             	mov    %rax,%rdx
    601a:	48 c1 ea 10          	shr    $0x10,%rdx
    601e:	88 93 92 00 00 00    	mov    %dl,0x92(%rbx)
    6024:	48 89 c2             	mov    %rax,%rdx
    6027:	48 c1 ea 18          	shr    $0x18,%rdx
    602b:	88 93 93 00 00 00    	mov    %dl,0x93(%rbx)
    6031:	48 89 c2             	mov    %rax,%rdx
    6034:	48 c1 ea 20          	shr    $0x20,%rdx
    6038:	88 93 94 00 00 00    	mov    %dl,0x94(%rbx)
    603e:	48 89 c2             	mov    %rax,%rdx
    6041:	48 c1 ea 28          	shr    $0x28,%rdx
    6045:	88 93 95 00 00 00    	mov    %dl,0x95(%rbx)
    604b:	48 89 c2             	mov    %rax,%rdx
    604e:	48 c1 e8 38          	shr    $0x38,%rax
    6052:	48 c1 ea 30          	shr    $0x30,%rdx
    6056:	88 83 97 00 00 00    	mov    %al,0x97(%rbx)
    605c:	88 93 96 00 00 00    	mov    %dl,0x96(%rbx)
    6062:	48 8b 85 98 00 00 00 	mov    0x98(%rbp),%rax
    6069:	48 89 c2             	mov    %rax,%rdx
    606c:	88 83 98 00 00 00    	mov    %al,0x98(%rbx)
    6072:	48 c1 ea 08          	shr    $0x8,%rdx
    6076:	88 93 99 00 00 00    	mov    %dl,0x99(%rbx)
    607c:	48 89 c2             	mov    %rax,%rdx
    607f:	48 c1 ea 10          	shr    $0x10,%rdx
    6083:	88 93 9a 00 00 00    	mov    %dl,0x9a(%rbx)
    6089:	48 89 c2             	mov    %rax,%rdx
    608c:	48 c1 ea 18          	shr    $0x18,%rdx
    6090:	88 93 9b 00 00 00    	mov    %dl,0x9b(%rbx)
    6096:	48 89 c2             	mov    %rax,%rdx
    6099:	48 c1 ea 20          	shr    $0x20,%rdx
    609d:	88 93 9c 00 00 00    	mov    %dl,0x9c(%rbx)
    60a3:	48 89 c2             	mov    %rax,%rdx
    60a6:	48 c1 ea 28          	shr    $0x28,%rdx
    60aa:	88 93 9d 00 00 00    	mov    %dl,0x9d(%rbx)
    60b0:	48 89 c2             	mov    %rax,%rdx
    60b3:	48 c1 e8 38          	shr    $0x38,%rax
    60b7:	48 c1 ea 30          	shr    $0x30,%rdx
